;
; File generated by cc65 v 2.19 - Git 14d05c6
;
	.fopt		compiler,"cc65 v 2.19 - Git 14d05c6"
	.setcpu		"6502"
	.smart		on
	.autoimport	on
	.case		on
	.debuginfo	off
	.importzp	sp, sreg, regsave, regbank
	.importzp	tmp1, tmp2, tmp3, tmp4, ptr1, ptr2, ptr3, ptr4
	.macpack	longbranch
	.forceimport	__STARTUP__
	.import		_pal_bg
	.import		_pal_spr
	.import		_pal_col
	.import		_pal_bright
	.import		_ppu_wait_nmi
	.import		_ppu_off
	.import		_ppu_on_all
	.import		_oam_clear
	.import		_oam_spr
	.import		_oam_meta_spr
	.import		_music_play
	.import		_music_stop
	.import		_sfx_play
	.import		_pad_poll
	.import		_bank_spr
	.import		_set_vram_update
	.import		_vram_adr
	.import		_vram_fill
	.import		_vram_unrle
	.import		_memcpy
	.import		_delay
	.import		_set_vram_buffer
	.import		_one_vram_buffer
	.import		_multi_vram_buffer_horz
	.import		_clear_vram_buffer
	.import		_get_pad_new
	.import		_get_frame_count
	.import		_set_music_speed
	.import		_check_collision
	.import		_pal_fade_to
	.import		_set_scroll_x
	.import		_get_ppu_addr
	.import		_set_data_pointer
	.import		_set_mt_pointer
	.import		_buffer_4_mt
	.import		_flush_vram_update_nmi
	.import		_color_emphasis
	.export		_RoundSprL
	.export		_RoundSprR
	.export		_RoundSprAR
	.export		_RoundSprAL
	.export		_RoundSprS
	.export		_CoinSpr
	.export		_BigCoinSpr
	.export		_CoinHud
	.export		_EnemyChaseSpr
	.export		_EnemyBounceSpr
	.export		_EnemyBounceSpr2
	.export		_pad1
	.export		_pad1_new
	.export		_collision
	.export		_collision_L
	.export		_collision_R
	.export		_collision_U
	.export		_collision_D
	.export		_coordinates
	.export		_temp1
	.export		_temp2
	.export		_temp3
	.export		_temp4
	.export		_temp5
	.export		_temp6
	.export		_ind
	.export		_eject_L
	.export		_eject_R
	.export		_eject_D
	.export		_eject_U
	.export		_direction
	.export		_address
	.export		_x
	.export		_y
	.export		_nt
	.export		_index
	.export		_index2
	.export		_index3
	.export		_room
	.export		_map
	.export		_scroll_x
	.export		_scroll_y
	.export		_scroll_count
	.export		_pseudo_scroll_x
	.export		_L_R_switch
	.export		_old_x
	.export		_old_y
	.export		_temp_x
	.export		_temp_y
	.export		_song
	.export		_game_mode
	.export		_coins
	.export		_lives
	.export		_pointer
	.export		_level
	.export		_offset
	.export		_level_up
	.export		_bright
	.export		_bright_count
	.export		_death
	.export		_order
	.export		_order1
	.export		_order2
	.export		_timer
	.export		_enemy_frames
	.export		_map_loaded
	.export		_short_jump_count
	.export		_c_map
	.export		_c_map2
	.export		_Generic
	.export		_Generic2
	.export		_BoxGuy1
	.export		_coin_x
	.export		_coin_y
	.export		_coin_active
	.export		_coin_room
	.export		_coin_actual_x
	.export		_coin_type
	.export		_player_special_order
	.export		_player_order
	.export		_index_order_1
	.export		_index_order_2
	.export		_index_order_3
	.export		_index_order_4
	.export		_index_list
	.export		_special_order_1
	.export		_special_order_2
	.export		_special_order_3
	.export		_special_order_4
	.export		_special_list
	.export		_enemy_x
	.export		_enemy_y
	.export		_enemy_active
	.export		_enemy_room
	.export		_enemy_actual_x
	.export		_enemy_type
	.export		_enemy_anim
	.export		_shuffle_array
	.export		_palette_title
	.export		_title_color_rotate
	.export		_palette_bg
	.export		_palette_sp
	.export		_END_TEXT
	.export		_END_TEXT2
	.export		_END_TEXT3
	.export		_DEAD_TEXT
	.export		_title
	.export		_FLAG
	.export		_load_title
	.export		_reset_special
	.export		_reset_ind
	.export		_load_room
	.export		_load_room_1
	.export		_draw_sprites
	.export		_movement
	.export		_bg_collision
	.export		_draw_screen_R
	.export		_new_cmap
	.export		_bg_collision_sub
	.export		_bg_check_low
	.export		_get_position
	.export		_enemy_moves
	.export		_sprite_collisions
	.export		_check_spr_objects
	.export		_sprite_obj_init
	.export		_bg_collision_fast
	.export		_check_order
	.export		_check_special_order
	.export		_level_1_coins
	.export		_level_2_coins
	.export		_level_3_coins
	.export		_level_4_coins
	.export		_Coins_list
	.export		_level_1_enemies
	.export		_level_2_enemies
	.export		_level_3_enemies
	.export		_level_4_enemies
	.export		_Enemy_list
	.export		_metatiles1
	.export		_is_solid
	.export		_Level1_0
	.export		_Level1_1
	.export		_Level1_2
	.export		_Level1_3
	.export		_Level1_4
	.export		_Level1_5
	.export		_Level1_6
	.export		_Level1_7
	.export		_Level1_8
	.export		_Level1_9
	.export		_Level1_list
	.export		_Level2_0
	.export		_Level2_1
	.export		_Level2_2
	.export		_Level2_3
	.export		_Level2_4
	.export		_Level2_5
	.export		_Level2_6
	.export		_Level2_7
	.export		_Level2_8
	.export		_Level2_9
	.export		_Level2_list
	.export		_Level3_0
	.export		_Level3_1
	.export		_Level3_2
	.export		_Level3_3
	.export		_Level3_4
	.export		_Level3_5
	.export		_Level3_6
	.export		_Level3_7
	.export		_Level3_8
	.export		_Level3_9
	.export		_Level3_list
	.export		_Level4_0
	.export		_Level4_1
	.export		_Level4_2
	.export		_Level4_3
	.export		_Level4_4
	.export		_Level4_5
	.export		_Level4_6
	.export		_Level4_7
	.export		_Level4_8
	.export		_Level4_9
	.export		_Level4_list
	.export		_Levels_list
	.export		_Level_offsets
	.export		_main

.segment	"DATA"

_index3:
	.byte	$00
_order2:
	.byte	$00
_index_order_1:
	.byte	$00
	.byte	$02
	.byte	$01
	.byte	$03
	.byte	$04
	.byte	$05
	.byte	$06
	.byte	$08
	.byte	$07
	.byte	$09
_index_order_2:
	.byte	$00
	.byte	$01
	.byte	$02
	.byte	$04
	.byte	$03
	.byte	$05
	.byte	$06
	.byte	$07
	.byte	$09
	.byte	$08
_index_order_3:
	.byte	$00
	.byte	$01
	.byte	$02
	.byte	$04
	.byte	$03
	.byte	$05
	.byte	$06
	.byte	$08
	.byte	$09
	.byte	$07
_index_order_4:
	.byte	$02
	.byte	$00
	.byte	$01
	.byte	$05
	.byte	$03
	.byte	$04
	.byte	$06
	.byte	$09
	.byte	$07
	.byte	$08
_special_order_1:
	.byte	$00
	.byte	$01
	.byte	$02
	.byte	$04
	.byte	$03
	.byte	$05
	.byte	$06
	.byte	$08
	.byte	$07
	.byte	$09
_special_order_2:
	.byte	$00
	.byte	$01
	.byte	$02
	.byte	$03
	.byte	$04
	.byte	$05
	.byte	$07
	.byte	$06
	.byte	$09
	.byte	$08
_special_order_3:
	.byte	$00
	.byte	$02
	.byte	$01
	.byte	$04
	.byte	$05
	.byte	$03
	.byte	$06
	.byte	$09
	.byte	$08
	.byte	$07
_special_order_4:
	.byte	$01
	.byte	$00
	.byte	$02
	.byte	$04
	.byte	$05
	.byte	$03
	.byte	$06
	.byte	$07
	.byte	$09
	.byte	$08

.segment	"RODATA"

_RoundSprL:
	.byte	$FF
	.byte	$FC
	.byte	$00
	.byte	$01
	.byte	$07
	.byte	$FC
	.byte	$01
	.byte	$01
	.byte	$FF
	.byte	$04
	.byte	$10
	.byte	$01
	.byte	$07
	.byte	$04
	.byte	$11
	.byte	$01
	.byte	$FF
	.byte	$0C
	.byte	$20
	.byte	$01
	.byte	$07
	.byte	$0C
	.byte	$21
	.byte	$01
	.byte	$FF
	.byte	$14
	.byte	$30
	.byte	$01
	.byte	$07
	.byte	$14
	.byte	$31
	.byte	$01
	.byte	$0F
	.byte	$FC
	.byte	$02
	.byte	$01
	.byte	$17
	.byte	$FC
	.byte	$03
	.byte	$01
	.byte	$0F
	.byte	$04
	.byte	$12
	.byte	$01
	.byte	$17
	.byte	$04
	.byte	$13
	.byte	$01
	.byte	$0F
	.byte	$0C
	.byte	$22
	.byte	$01
	.byte	$17
	.byte	$0C
	.byte	$23
	.byte	$01
	.byte	$0F
	.byte	$14
	.byte	$32
	.byte	$01
	.byte	$17
	.byte	$14
	.byte	$33
	.byte	$01
	.byte	$80
_RoundSprR:
	.byte	$FF
	.byte	$FC
	.byte	$04
	.byte	$01
	.byte	$07
	.byte	$FC
	.byte	$05
	.byte	$01
	.byte	$FF
	.byte	$04
	.byte	$14
	.byte	$01
	.byte	$07
	.byte	$04
	.byte	$15
	.byte	$01
	.byte	$FF
	.byte	$0C
	.byte	$24
	.byte	$01
	.byte	$07
	.byte	$0C
	.byte	$25
	.byte	$01
	.byte	$FF
	.byte	$14
	.byte	$34
	.byte	$01
	.byte	$07
	.byte	$14
	.byte	$35
	.byte	$01
	.byte	$0F
	.byte	$FC
	.byte	$06
	.byte	$01
	.byte	$17
	.byte	$FC
	.byte	$07
	.byte	$01
	.byte	$0F
	.byte	$04
	.byte	$16
	.byte	$01
	.byte	$17
	.byte	$04
	.byte	$17
	.byte	$01
	.byte	$0F
	.byte	$0C
	.byte	$26
	.byte	$01
	.byte	$17
	.byte	$0C
	.byte	$27
	.byte	$01
	.byte	$0F
	.byte	$14
	.byte	$36
	.byte	$01
	.byte	$17
	.byte	$14
	.byte	$37
	.byte	$01
	.byte	$80
_RoundSprAR:
	.byte	$FF
	.byte	$FC
	.byte	$40
	.byte	$01
	.byte	$07
	.byte	$FC
	.byte	$41
	.byte	$01
	.byte	$FF
	.byte	$04
	.byte	$50
	.byte	$01
	.byte	$07
	.byte	$04
	.byte	$51
	.byte	$01
	.byte	$FF
	.byte	$0C
	.byte	$60
	.byte	$01
	.byte	$07
	.byte	$0C
	.byte	$61
	.byte	$01
	.byte	$FF
	.byte	$14
	.byte	$70
	.byte	$01
	.byte	$07
	.byte	$14
	.byte	$71
	.byte	$01
	.byte	$0F
	.byte	$FC
	.byte	$42
	.byte	$01
	.byte	$17
	.byte	$FC
	.byte	$43
	.byte	$01
	.byte	$0F
	.byte	$04
	.byte	$52
	.byte	$01
	.byte	$17
	.byte	$04
	.byte	$53
	.byte	$01
	.byte	$0F
	.byte	$0C
	.byte	$62
	.byte	$01
	.byte	$17
	.byte	$0C
	.byte	$63
	.byte	$01
	.byte	$0F
	.byte	$14
	.byte	$72
	.byte	$01
	.byte	$17
	.byte	$14
	.byte	$73
	.byte	$01
	.byte	$80
_RoundSprAL:
	.byte	$FF
	.byte	$FC
	.byte	$44
	.byte	$01
	.byte	$07
	.byte	$FC
	.byte	$45
	.byte	$01
	.byte	$FF
	.byte	$04
	.byte	$54
	.byte	$01
	.byte	$07
	.byte	$04
	.byte	$55
	.byte	$01
	.byte	$FF
	.byte	$0C
	.byte	$64
	.byte	$01
	.byte	$07
	.byte	$0C
	.byte	$65
	.byte	$01
	.byte	$FF
	.byte	$14
	.byte	$74
	.byte	$01
	.byte	$07
	.byte	$14
	.byte	$75
	.byte	$01
	.byte	$0F
	.byte	$FC
	.byte	$46
	.byte	$01
	.byte	$17
	.byte	$FC
	.byte	$47
	.byte	$01
	.byte	$0F
	.byte	$04
	.byte	$56
	.byte	$01
	.byte	$17
	.byte	$04
	.byte	$57
	.byte	$01
	.byte	$0F
	.byte	$0C
	.byte	$66
	.byte	$01
	.byte	$17
	.byte	$0C
	.byte	$67
	.byte	$01
	.byte	$0F
	.byte	$14
	.byte	$76
	.byte	$01
	.byte	$17
	.byte	$14
	.byte	$77
	.byte	$01
	.byte	$80
_RoundSprS:
	.byte	$FF
	.byte	$FC
	.byte	$00
	.byte	$01
	.byte	$07
	.byte	$FC
	.byte	$01
	.byte	$01
	.byte	$FF
	.byte	$04
	.byte	$10
	.byte	$01
	.byte	$07
	.byte	$04
	.byte	$11
	.byte	$01
	.byte	$FF
	.byte	$0C
	.byte	$20
	.byte	$01
	.byte	$07
	.byte	$0C
	.byte	$21
	.byte	$01
	.byte	$FF
	.byte	$14
	.byte	$30
	.byte	$01
	.byte	$07
	.byte	$14
	.byte	$31
	.byte	$01
	.byte	$0F
	.byte	$FC
	.byte	$02
	.byte	$01
	.byte	$17
	.byte	$FC
	.byte	$03
	.byte	$01
	.byte	$0F
	.byte	$04
	.byte	$12
	.byte	$01
	.byte	$17
	.byte	$04
	.byte	$13
	.byte	$01
	.byte	$0F
	.byte	$0C
	.byte	$22
	.byte	$01
	.byte	$17
	.byte	$0C
	.byte	$23
	.byte	$01
	.byte	$0F
	.byte	$14
	.byte	$32
	.byte	$01
	.byte	$17
	.byte	$14
	.byte	$33
	.byte	$01
	.byte	$80
_CoinSpr:
	.byte	$FF
	.byte	$FF
	.byte	$A0
	.byte	$02
	.byte	$FF
	.byte	$07
	.byte	$B0
	.byte	$02
	.byte	$07
	.byte	$FF
	.byte	$A1
	.byte	$02
	.byte	$07
	.byte	$07
	.byte	$B1
	.byte	$02
	.byte	$80
_BigCoinSpr:
	.byte	$FF
	.byte	$FF
	.byte	$A2
	.byte	$02
	.byte	$FF
	.byte	$07
	.byte	$B2
	.byte	$02
	.byte	$07
	.byte	$FF
	.byte	$A3
	.byte	$02
	.byte	$07
	.byte	$07
	.byte	$B3
	.byte	$02
	.byte	$80
_CoinHud:
	.byte	$00
	.byte	$00
	.byte	$A0
	.byte	$02
	.byte	$08
	.byte	$00
	.byte	$A1
	.byte	$02
	.byte	$00
	.byte	$08
	.byte	$B0
	.byte	$02
	.byte	$08
	.byte	$08
	.byte	$B1
	.byte	$02
	.byte	$80
_EnemyChaseSpr:
	.byte	$FF
	.byte	$FC
	.byte	$08
	.byte	$01
	.byte	$07
	.byte	$FC
	.byte	$09
	.byte	$01
	.byte	$FF
	.byte	$04
	.byte	$18
	.byte	$01
	.byte	$07
	.byte	$04
	.byte	$19
	.byte	$01
	.byte	$FF
	.byte	$0C
	.byte	$28
	.byte	$01
	.byte	$07
	.byte	$0C
	.byte	$29
	.byte	$01
	.byte	$FF
	.byte	$14
	.byte	$38
	.byte	$01
	.byte	$07
	.byte	$14
	.byte	$39
	.byte	$01
	.byte	$0F
	.byte	$FC
	.byte	$0A
	.byte	$01
	.byte	$17
	.byte	$FC
	.byte	$0B
	.byte	$01
	.byte	$0F
	.byte	$04
	.byte	$1A
	.byte	$01
	.byte	$17
	.byte	$04
	.byte	$1B
	.byte	$01
	.byte	$0F
	.byte	$0C
	.byte	$2A
	.byte	$01
	.byte	$17
	.byte	$0C
	.byte	$2B
	.byte	$01
	.byte	$0F
	.byte	$14
	.byte	$3A
	.byte	$01
	.byte	$17
	.byte	$14
	.byte	$3B
	.byte	$01
	.byte	$80
_EnemyBounceSpr:
	.byte	$FF
	.byte	$FC
	.byte	$88
	.byte	$01
	.byte	$07
	.byte	$FC
	.byte	$89
	.byte	$01
	.byte	$FF
	.byte	$04
	.byte	$98
	.byte	$01
	.byte	$07
	.byte	$04
	.byte	$99
	.byte	$01
	.byte	$FF
	.byte	$0C
	.byte	$A8
	.byte	$01
	.byte	$07
	.byte	$0C
	.byte	$A9
	.byte	$01
	.byte	$FF
	.byte	$14
	.byte	$B8
	.byte	$01
	.byte	$07
	.byte	$14
	.byte	$B9
	.byte	$01
	.byte	$0F
	.byte	$FC
	.byte	$8A
	.byte	$01
	.byte	$17
	.byte	$FC
	.byte	$8B
	.byte	$01
	.byte	$0F
	.byte	$04
	.byte	$9A
	.byte	$01
	.byte	$17
	.byte	$04
	.byte	$9B
	.byte	$01
	.byte	$0F
	.byte	$0C
	.byte	$AA
	.byte	$01
	.byte	$17
	.byte	$0C
	.byte	$AB
	.byte	$01
	.byte	$0F
	.byte	$14
	.byte	$BA
	.byte	$01
	.byte	$17
	.byte	$14
	.byte	$BB
	.byte	$01
	.byte	$80
_EnemyBounceSpr2:
	.byte	$FF
	.byte	$FC
	.byte	$8C
	.byte	$01
	.byte	$07
	.byte	$FC
	.byte	$8D
	.byte	$01
	.byte	$FF
	.byte	$04
	.byte	$9C
	.byte	$01
	.byte	$07
	.byte	$04
	.byte	$9D
	.byte	$01
	.byte	$FF
	.byte	$0C
	.byte	$AC
	.byte	$01
	.byte	$07
	.byte	$0C
	.byte	$AD
	.byte	$01
	.byte	$FF
	.byte	$14
	.byte	$BC
	.byte	$01
	.byte	$07
	.byte	$14
	.byte	$BD
	.byte	$01
	.byte	$0F
	.byte	$FC
	.byte	$8E
	.byte	$01
	.byte	$17
	.byte	$FC
	.byte	$8F
	.byte	$01
	.byte	$0F
	.byte	$04
	.byte	$9E
	.byte	$01
	.byte	$17
	.byte	$04
	.byte	$9F
	.byte	$01
	.byte	$0F
	.byte	$0C
	.byte	$AE
	.byte	$01
	.byte	$17
	.byte	$0C
	.byte	$AF
	.byte	$01
	.byte	$0F
	.byte	$14
	.byte	$BE
	.byte	$01
	.byte	$17
	.byte	$14
	.byte	$BF
	.byte	$01
	.byte	$80
_index_list:
	.addr	_index_order_1
	.addr	_index_order_2
	.addr	_index_order_3
	.addr	_index_order_4
_special_list:
	.addr	_special_order_1
	.addr	_special_order_2
	.addr	_special_order_3
	.addr	_special_order_4
_shuffle_array:
	.byte	$00
	.byte	$01
	.byte	$02
	.byte	$03
	.byte	$04
	.byte	$05
	.byte	$06
	.byte	$07
	.byte	$08
	.byte	$09
	.byte	$0A
	.byte	$0B
	.byte	$0C
	.byte	$0D
	.byte	$0E
	.byte	$0F
	.byte	$0F
	.byte	$0E
	.byte	$0D
	.byte	$0C
	.byte	$0B
	.byte	$0A
	.byte	$09
	.byte	$08
	.byte	$07
	.byte	$06
	.byte	$05
	.byte	$04
	.byte	$03
	.byte	$02
	.byte	$01
	.byte	$00
	.byte	$00
	.byte	$02
	.byte	$04
	.byte	$06
	.byte	$08
	.byte	$0A
	.byte	$0C
	.byte	$0E
	.byte	$01
	.byte	$03
	.byte	$05
	.byte	$07
	.byte	$09
	.byte	$0B
	.byte	$0D
	.byte	$0F
	.byte	$0F
	.byte	$0D
	.byte	$0B
	.byte	$09
	.byte	$07
	.byte	$05
	.byte	$03
	.byte	$01
	.byte	$0E
	.byte	$0C
	.byte	$0A
	.byte	$08
	.byte	$06
	.byte	$04
	.byte	$02
	.byte	$00
_palette_title:
	.byte	$0F
	.byte	$04
	.byte	$15
	.byte	$32
	.byte	$00
	.byte	$00
	.byte	$00
	.byte	$00
	.byte	$00
	.byte	$00
	.byte	$00
	.byte	$00
	.byte	$00
	.byte	$00
	.byte	$00
	.byte	$00
_title_color_rotate:
	.byte	$32
	.byte	$22
	.byte	$30
	.byte	$37
_palette_bg:
	.byte	$0F
	.byte	$00
	.byte	$10
	.byte	$30
	.byte	$0F
	.byte	$01
	.byte	$21
	.byte	$31
	.byte	$0F
	.byte	$06
	.byte	$16
	.byte	$26
	.byte	$0F
	.byte	$09
	.byte	$19
	.byte	$29
_palette_sp:
	.byte	$22
	.byte	$01
	.byte	$11
	.byte	$10
	.byte	$22
	.byte	$17
	.byte	$28
	.byte	$38
	.byte	$22
	.byte	$06
	.byte	$16
	.byte	$37
	.byte	$22
	.byte	$03
	.byte	$13
	.byte	$33
_END_TEXT:
	.byte	$54,$68,$65,$20,$65,$6E,$64,$20,$6F,$66,$20,$74,$68,$65,$20,$67
	.byte	$61,$6D,$65,$2E,$00
_END_TEXT2:
	.byte	$49,$20,$67,$75,$65,$73,$73,$20,$79,$6F,$75,$20,$77,$6F,$6E,$3F
	.byte	$00
_END_TEXT3:
	.byte	$4C,$69,$76,$65,$73,$3A,$20,$00
_DEAD_TEXT:
	.byte	$59,$6F,$75,$20,$64,$69,$65,$64,$2E,$00
_title:
	.byte	$01
	.byte	$00
	.byte	$01
	.byte	$14
	.byte	$2B
	.byte	$2D
	.byte	$01
	.byte	$02
	.byte	$2B
	.byte	$00
	.byte	$01
	.byte	$1A
	.byte	$7C
	.byte	$00
	.byte	$01
	.byte	$02
	.byte	$7C
	.byte	$00
	.byte	$01
	.byte	$1A
	.byte	$7C
	.byte	$30
	.byte	$00
	.byte	$30
	.byte	$7C
	.byte	$00
	.byte	$01
	.byte	$19
	.byte	$0C
	.byte	$5D
	.byte	$00
	.byte	$21
	.byte	$00
	.byte	$2F
	.byte	$00
	.byte	$01
	.byte	$1B
	.byte	$5D
	.byte	$2D
	.byte	$2F
	.byte	$00
	.byte	$01
	.byte	$1D
	.byte	$3D
	.byte	$00
	.byte	$01
	.byte	$4C
	.byte	$41
	.byte	$44
	.byte	$56
	.byte	$45
	.byte	$4E
	.byte	$54
	.byte	$55
	.byte	$52
	.byte	$45
	.byte	$53
	.byte	$00
	.byte	$01
	.byte	$3A
	.byte	$4F
	.byte	$46
	.byte	$00
	.byte	$01
	.byte	$3F
	.byte	$4C
	.byte	$4F
	.byte	$4E
	.byte	$45
	.byte	$4C
	.byte	$59
	.byte	$00
	.byte	$01
	.byte	$3D
	.byte	$4B
	.byte	$4E
	.byte	$49
	.byte	$47
	.byte	$48
	.byte	$54
	.byte	$00
	.byte	$01
	.byte	$B1
	.byte	$50
	.byte	$41
	.byte	$52
	.byte	$54
	.byte	$2D
	.byte	$31
	.byte	$00
	.byte	$01
	.byte	$86
	.byte	$46
	.byte	$55
	.byte	$47
	.byte	$31
	.byte	$54
	.byte	$49
	.byte	$56
	.byte	$45
	.byte	$00
	.byte	$01
	.byte	$E1
	.byte	$00
	.byte	$01
	.byte	$00
_FLAG:
	.byte	$01
	.byte	$0B
	.byte	$0C
	.byte	$0D
	.byte	$0E
	.byte	$0F
	.byte	$00
	.byte	$01
	.byte	$0E
	.byte	$0B
	.byte	$0B
	.byte	$0C
	.byte	$0D
	.byte	$0E
	.byte	$0F
	.byte	$01
	.byte	$03
	.byte	$00
	.byte	$01
	.byte	$02
	.byte	$0B
	.byte	$01
	.byte	$04
	.byte	$0C
	.byte	$0D
	.byte	$0E
	.byte	$0F
	.byte	$00
	.byte	$01
	.byte	$0A
	.byte	$1B
	.byte	$1B
	.byte	$0B
	.byte	$0B
	.byte	$0C
	.byte	$0D
	.byte	$0E
	.byte	$0F
	.byte	$1F
	.byte	$0F
	.byte	$00
	.byte	$00
	.byte	$1B
	.byte	$01
	.byte	$04
	.byte	$0B
	.byte	$01
	.byte	$0E
	.byte	$1B
	.byte	$01
	.byte	$02
	.byte	$0B
	.byte	$0C
	.byte	$0D
	.byte	$0E
	.byte	$0F
	.byte	$1F
	.byte	$1F
	.byte	$00
	.byte	$01
	.byte	$06
	.byte	$1B
	.byte	$01
	.byte	$0F
	.byte	$1C
	.byte	$1D
	.byte	$0B
	.byte	$0C
	.byte	$0D
	.byte	$0E
	.byte	$0F
	.byte	$00
	.byte	$01
	.byte	$03
	.byte	$69
	.byte	$6E
	.byte	$63
	.byte	$74
	.byte	$66
	.byte	$7B
	.byte	$64
	.byte	$30
	.byte	$5F
	.byte	$79
	.byte	$6F
	.byte	$75
	.byte	$5F
	.byte	$72
	.byte	$33
	.byte	$6D
	.byte	$65
	.byte	$6D
	.byte	$62
	.byte	$33
	.byte	$72
	.byte	$5F
	.byte	$6D
	.byte	$33
	.byte	$3F
	.byte	$7D
	.byte	$0F
	.byte	$0F
	.byte	$00
	.byte	$01
	.byte	$12
	.byte	$0B
	.byte	$0C
	.byte	$0D
	.byte	$0E
	.byte	$0F
	.byte	$00
	.byte	$00
	.byte	$0B
	.byte	$0C
	.byte	$0D
	.byte	$0E
	.byte	$0F
	.byte	$1F
	.byte	$00
	.byte	$01
	.byte	$0E
	.byte	$0B
	.byte	$0C
	.byte	$0D
	.byte	$0E
	.byte	$0B
	.byte	$0C
	.byte	$0D
	.byte	$0E
	.byte	$0F
	.byte	$00
	.byte	$00
	.byte	$0B
	.byte	$0B
	.byte	$0C
	.byte	$0D
	.byte	$0E
	.byte	$0F
	.byte	$00
	.byte	$01
	.byte	$0E
	.byte	$1B
	.byte	$0B
	.byte	$0B
	.byte	$0C
	.byte	$0B
	.byte	$0C
	.byte	$0D
	.byte	$0E
	.byte	$0F
	.byte	$00
	.byte	$00
	.byte	$0B
	.byte	$0C
	.byte	$0D
	.byte	$0E
	.byte	$0F
	.byte	$0F
	.byte	$00
	.byte	$01
	.byte	$04
	.byte	$0B
	.byte	$0C
	.byte	$0D
	.byte	$0E
	.byte	$0F
	.byte	$0F
	.byte	$0E
	.byte	$0F
	.byte	$0E
	.byte	$0F
	.byte	$0E
	.byte	$1B
	.byte	$0B
	.byte	$01
	.byte	$02
	.byte	$0C
	.byte	$0D
	.byte	$0E
	.byte	$0F
	.byte	$0F
	.byte	$00
	.byte	$0B
	.byte	$0C
	.byte	$0D
	.byte	$0E
	.byte	$0F
	.byte	$1F
	.byte	$00
	.byte	$01
	.byte	$04
	.byte	$1B
	.byte	$0B
	.byte	$0C
	.byte	$0D
	.byte	$0E
	.byte	$0F
	.byte	$0B
	.byte	$01
	.byte	$02
	.byte	$0C
	.byte	$0D
	.byte	$0E
	.byte	$0F
	.byte	$0B
	.byte	$1B
	.byte	$1C
	.byte	$1D
	.byte	$1E
	.byte	$1F
	.byte	$1F
	.byte	$0E
	.byte	$0F
	.byte	$01
	.byte	$05
	.byte	$0E
	.byte	$0F
	.byte	$01
	.byte	$02
	.byte	$00
	.byte	$00
	.byte	$0B
	.byte	$0C
	.byte	$0D
	.byte	$0E
	.byte	$0F
	.byte	$1B
	.byte	$1B
	.byte	$0B
	.byte	$0C
	.byte	$0D
	.byte	$0E
	.byte	$0F
	.byte	$1B
	.byte	$01
	.byte	$02
	.byte	$1C
	.byte	$1D
	.byte	$1E
	.byte	$1F
	.byte	$0F
	.byte	$0E
	.byte	$0F
	.byte	$1F
	.byte	$01
	.byte	$03
	.byte	$1E
	.byte	$1F
	.byte	$01
	.byte	$02
	.byte	$00
	.byte	$00
	.byte	$0B
	.byte	$0B
	.byte	$0C
	.byte	$0D
	.byte	$0E
	.byte	$0F
	.byte	$0B
	.byte	$0C
	.byte	$0D
	.byte	$0E
	.byte	$0F
	.byte	$0F
	.byte	$1F
	.byte	$1B
	.byte	$1C
	.byte	$1B
	.byte	$1C
	.byte	$1D
	.byte	$1E
	.byte	$1F
	.byte	$0F
	.byte	$01
	.byte	$03
	.byte	$00
	.byte	$01
	.byte	$07
	.byte	$1B
	.byte	$0B
	.byte	$01
	.byte	$03
	.byte	$0C
	.byte	$0D
	.byte	$0E
	.byte	$0F
	.byte	$0E
	.byte	$0F
	.byte	$1F
	.byte	$01
	.byte	$02
	.byte	$0F
	.byte	$1B
	.byte	$1B
	.byte	$1C
	.byte	$1D
	.byte	$1E
	.byte	$1F
	.byte	$0F
	.byte	$0F
	.byte	$1F
	.byte	$00
	.byte	$01
	.byte	$08
	.byte	$1B
	.byte	$01
	.byte	$02
	.byte	$0B
	.byte	$0C
	.byte	$0D
	.byte	$0E
	.byte	$0F
	.byte	$01
	.byte	$02
	.byte	$1D
	.byte	$1E
	.byte	$1F
	.byte	$01
	.byte	$03
	.byte	$1B
	.byte	$1C
	.byte	$1D
	.byte	$1E
	.byte	$1F
	.byte	$1F
	.byte	$00
	.byte	$01
	.byte	$0A
	.byte	$1B
	.byte	$1C
	.byte	$0B
	.byte	$0C
	.byte	$0D
	.byte	$0E
	.byte	$0F
	.byte	$1F
	.byte	$1F
	.byte	$00
	.byte	$00
	.byte	$1B
	.byte	$1C
	.byte	$1D
	.byte	$1E
	.byte	$1F
	.byte	$0F
	.byte	$0D
	.byte	$0E
	.byte	$0F
	.byte	$00
	.byte	$01
	.byte	$0B
	.byte	$0B
	.byte	$0B
	.byte	$0C
	.byte	$0D
	.byte	$0B
	.byte	$01
	.byte	$07
	.byte	$0C
	.byte	$0D
	.byte	$0E
	.byte	$0F
	.byte	$0B
	.byte	$0C
	.byte	$0D
	.byte	$0E
	.byte	$0F
	.byte	$01
	.byte	$02
	.byte	$00
	.byte	$01
	.byte	$08
	.byte	$1B
	.byte	$0B
	.byte	$01
	.byte	$02
	.byte	$1B
	.byte	$01
	.byte	$06
	.byte	$0B
	.byte	$01
	.byte	$04
	.byte	$1B
	.byte	$1C
	.byte	$1D
	.byte	$1E
	.byte	$1F
	.byte	$01
	.byte	$02
	.byte	$0F
	.byte	$00
	.byte	$01
	.byte	$08
	.byte	$1B
	.byte	$1B
	.byte	$54
	.byte	$4F
	.byte	$1C
	.byte	$1D
	.byte	$42
	.byte	$45
	.byte	$0B
	.byte	$01
	.byte	$02
	.byte	$43
	.byte	$4F
	.byte	$4E
	.byte	$54
	.byte	$49
	.byte	$4E
	.byte	$55
	.byte	$45
	.byte	$44
	.byte	$1E
	.byte	$1F
	.byte	$1F
	.byte	$00
	.byte	$01
	.byte	$08
	.byte	$1B
	.byte	$1C
	.byte	$1D
	.byte	$1E
	.byte	$1F
	.byte	$0E
	.byte	$0F
	.byte	$1B
	.byte	$01
	.byte	$08
	.byte	$1C
	.byte	$1D
	.byte	$1E
	.byte	$1F
	.byte	$00
	.byte	$01
	.byte	$0C
	.byte	$1B
	.byte	$0B
	.byte	$01
	.byte	$02
	.byte	$0C
	.byte	$0D
	.byte	$1B
	.byte	$1C
	.byte	$1D
	.byte	$1E
	.byte	$1F
	.byte	$1F
	.byte	$0F
	.byte	$1F
	.byte	$01
	.byte	$02
	.byte	$00
	.byte	$01
	.byte	$10
	.byte	$1B
	.byte	$1B
	.byte	$0B
	.byte	$01
	.byte	$03
	.byte	$1B
	.byte	$1C
	.byte	$1D
	.byte	$1E
	.byte	$1F
	.byte	$1F
	.byte	$0D
	.byte	$0E
	.byte	$0F
	.byte	$00
	.byte	$01
	.byte	$12
	.byte	$1B
	.byte	$01
	.byte	$08
	.byte	$1C
	.byte	$0B
	.byte	$0C
	.byte	$0B
	.byte	$2E
	.byte	$01
	.byte	$02
	.byte	$0F
	.byte	$00
	.byte	$01
	.byte	$18
	.byte	$1B
	.byte	$1C
	.byte	$0B
	.byte	$01
	.byte	$02
	.byte	$0C
	.byte	$0D
	.byte	$0E
	.byte	$0F
	.byte	$00
	.byte	$01
	.byte	$14
	.byte	$5F
	.byte	$01
	.byte	$02
	.byte	$00
	.byte	$1B
	.byte	$1B
	.byte	$0B
	.byte	$0C
	.byte	$0D
	.byte	$0E
	.byte	$0F
	.byte	$00
	.byte	$01
	.byte	$13
	.byte	$7C
	.byte	$00
	.byte	$01
	.byte	$02
	.byte	$7C
	.byte	$0B
	.byte	$0B
	.byte	$0C
	.byte	$0D
	.byte	$0E
	.byte	$0F
	.byte	$0F
	.byte	$0B
	.byte	$0B
	.byte	$0C
	.byte	$0D
	.byte	$00
	.byte	$01
	.byte	$0F
	.byte	$7C
	.byte	$30
	.byte	$00
	.byte	$5E
	.byte	$7C
	.byte	$1B
	.byte	$1B
	.byte	$0B
	.byte	$01
	.byte	$04
	.byte	$1B
	.byte	$1B
	.byte	$1C
	.byte	$1D
	.byte	$00
	.byte	$01
	.byte	$0F
	.byte	$7C
	.byte	$00
	.byte	$0C
	.byte	$00
	.byte	$7C
	.byte	$00
	.byte	$00
	.byte	$1B
	.byte	$01
	.byte	$05
	.byte	$1C
	.byte	$1D
	.byte	$1E
	.byte	$00
	.byte	$01
	.byte	$10
	.byte	$5D
	.byte	$00
	.byte	$2F
	.byte	$00
	.byte	$01
	.byte	$1D
	.byte	$3D
	.byte	$00
	.byte	$01
	.byte	$6B
	.byte	$00
	.byte	$01
	.byte	$00
_level_1_coins:
	.byte	$90
	.byte	$00
	.byte	$70
	.byte	$00
	.byte	$C0
	.byte	$01
	.byte	$40
	.byte	$00
	.byte	$60
	.byte	$01
	.byte	$90
	.byte	$00
	.byte	$80
	.byte	$02
	.byte	$00
	.byte	$00
	.byte	$A1
	.byte	$02
	.byte	$70
	.byte	$00
	.byte	$69
	.byte	$03
	.byte	$A0
	.byte	$00
	.byte	$71
	.byte	$04
	.byte	$D0
	.byte	$00
	.byte	$75
	.byte	$05
	.byte	$F0
	.byte	$00
	.byte	$C3
	.byte	$06
	.byte	$20
	.byte	$00
	.byte	$B9
	.byte	$07
	.byte	$C0
	.byte	$01
	.byte	$FF
_level_2_coins:
	.byte	$A0
	.byte	$00
	.byte	$20
	.byte	$00
	.byte	$A0
	.byte	$01
	.byte	$40
	.byte	$00
	.byte	$60
	.byte	$02
	.byte	$70
	.byte	$00
	.byte	$AF
	.byte	$03
	.byte	$20
	.byte	$00
	.byte	$BC
	.byte	$03
	.byte	$70
	.byte	$00
	.byte	$C1
	.byte	$05
	.byte	$50
	.byte	$00
	.byte	$7A
	.byte	$06
	.byte	$90
	.byte	$00
	.byte	$9A
	.byte	$06
	.byte	$D0
	.byte	$00
	.byte	$60
	.byte	$07
	.byte	$30
	.byte	$01
	.byte	$A0
	.byte	$07
	.byte	$40
	.byte	$00
	.byte	$FF
_level_3_coins:
	.byte	$80
	.byte	$00
	.byte	$80
	.byte	$00
	.byte	$70
	.byte	$01
	.byte	$50
	.byte	$00
	.byte	$80
	.byte	$01
	.byte	$D0
	.byte	$00
	.byte	$80
	.byte	$02
	.byte	$40
	.byte	$00
	.byte	$80
	.byte	$02
	.byte	$80
	.byte	$00
	.byte	$80
	.byte	$02
	.byte	$C0
	.byte	$00
	.byte	$80
	.byte	$03
	.byte	$30
	.byte	$00
	.byte	$A0
	.byte	$07
	.byte	$25
	.byte	$01
	.byte	$70
	.byte	$07
	.byte	$80
	.byte	$00
	.byte	$B0
	.byte	$07
	.byte	$D0
	.byte	$00
	.byte	$FF
_level_4_coins:
	.byte	$69
	.byte	$01
	.byte	$50
	.byte	$00
	.byte	$79
	.byte	$01
	.byte	$80
	.byte	$00
	.byte	$8A
	.byte	$01
	.byte	$D0
	.byte	$00
	.byte	$8F
	.byte	$02
	.byte	$40
	.byte	$00
	.byte	$8B
	.byte	$02
	.byte	$80
	.byte	$00
	.byte	$81
	.byte	$02
	.byte	$C0
	.byte	$00
	.byte	$80
	.byte	$03
	.byte	$30
	.byte	$00
	.byte	$A0
	.byte	$07
	.byte	$25
	.byte	$00
	.byte	$C0
	.byte	$07
	.byte	$80
	.byte	$01
	.byte	$B0
	.byte	$07
	.byte	$E0
	.byte	$00
	.byte	$FF
_Coins_list:
	.addr	_level_1_coins
	.addr	_level_2_coins
	.addr	_level_3_coins
	.addr	_level_4_coins
_level_1_enemies:
	.byte	$C0
	.byte	$00
	.byte	$C0
	.byte	$00
	.byte	$C0
	.byte	$01
	.byte	$E0
	.byte	$00
	.byte	$C0
	.byte	$02
	.byte	$30
	.byte	$00
	.byte	$C0
	.byte	$03
	.byte	$90
	.byte	$00
	.byte	$B0
	.byte	$04
	.byte	$20
	.byte	$00
	.byte	$C0
	.byte	$05
	.byte	$B0
	.byte	$00
	.byte	$80
	.byte	$06
	.byte	$00
	.byte	$00
	.byte	$C0
	.byte	$07
	.byte	$90
	.byte	$00
	.byte	$FF
_level_2_enemies:
	.byte	$C0
	.byte	$00
	.byte	$90
	.byte	$01
	.byte	$C0
	.byte	$01
	.byte	$D0
	.byte	$01
	.byte	$40
	.byte	$02
	.byte	$40
	.byte	$01
	.byte	$C0
	.byte	$03
	.byte	$30
	.byte	$01
	.byte	$C0
	.byte	$04
	.byte	$80
	.byte	$01
	.byte	$C0
	.byte	$05
	.byte	$20
	.byte	$01
	.byte	$C0
	.byte	$06
	.byte	$20
	.byte	$01
	.byte	$C0
	.byte	$07
	.byte	$60
	.byte	$01
	.byte	$FF
_level_3_enemies:
	.byte	$C0
	.byte	$00
	.byte	$C0
	.byte	$01
	.byte	$C0
	.byte	$01
	.byte	$F0
	.byte	$01
	.byte	$C0
	.byte	$02
	.byte	$80
	.byte	$00
	.byte	$C0
	.byte	$03
	.byte	$D0
	.byte	$00
	.byte	$C0
	.byte	$04
	.byte	$40
	.byte	$01
	.byte	$C0
	.byte	$05
	.byte	$80
	.byte	$01
	.byte	$C0
	.byte	$06
	.byte	$C0
	.byte	$01
	.byte	$B0
	.byte	$07
	.byte	$10
	.byte	$00
	.byte	$FF
_level_4_enemies:
	.byte	$C0
	.byte	$00
	.byte	$C0
	.byte	$01
	.byte	$C0
	.byte	$01
	.byte	$F0
	.byte	$01
	.byte	$C0
	.byte	$02
	.byte	$80
	.byte	$00
	.byte	$C0
	.byte	$03
	.byte	$D0
	.byte	$00
	.byte	$C0
	.byte	$04
	.byte	$40
	.byte	$01
	.byte	$C0
	.byte	$05
	.byte	$80
	.byte	$01
	.byte	$C0
	.byte	$06
	.byte	$C0
	.byte	$01
	.byte	$B0
	.byte	$07
	.byte	$10
	.byte	$01
	.byte	$B0
	.byte	$07
	.byte	$60
	.byte	$00
	.byte	$FF
_Enemy_list:
	.addr	_level_1_enemies
	.addr	_level_2_enemies
	.addr	_level_3_enemies
	.addr	_level_4_enemies
_metatiles1:
	.byte	$00
	.byte	$00
	.byte	$00
	.byte	$00
	.byte	$00
	.byte	$01
	.byte	$01
	.byte	$01
	.byte	$01
	.byte	$00
	.byte	$02
	.byte	$02
	.byte	$02
	.byte	$02
	.byte	$00
	.byte	$03
	.byte	$03
	.byte	$03
	.byte	$03
	.byte	$00
	.byte	$04
	.byte	$04
	.byte	$04
	.byte	$04
	.byte	$00
	.byte	$14
	.byte	$14
	.byte	$14
	.byte	$14
	.byte	$00
	.byte	$05
	.byte	$07
	.byte	$18
	.byte	$1A
	.byte	$00
	.byte	$12
	.byte	$12
	.byte	$12
	.byte	$12
	.byte	$00
	.byte	$01
	.byte	$01
	.byte	$01
	.byte	$01
	.byte	$01
	.byte	$02
	.byte	$02
	.byte	$02
	.byte	$02
	.byte	$01
	.byte	$03
	.byte	$03
	.byte	$03
	.byte	$03
	.byte	$01
	.byte	$11
	.byte	$11
	.byte	$11
	.byte	$11
	.byte	$01
	.byte	$12
	.byte	$12
	.byte	$12
	.byte	$12
	.byte	$01
	.byte	$05
	.byte	$07
	.byte	$18
	.byte	$1A
	.byte	$01
	.byte	$14
	.byte	$14
	.byte	$14
	.byte	$14
	.byte	$02
	.byte	$04
	.byte	$04
	.byte	$04
	.byte	$04
	.byte	$02
	.byte	$12
	.byte	$12
	.byte	$12
	.byte	$12
	.byte	$02
	.byte	$01
	.byte	$01
	.byte	$01
	.byte	$01
	.byte	$02
	.byte	$02
	.byte	$02
	.byte	$02
	.byte	$02
	.byte	$02
	.byte	$03
	.byte	$03
	.byte	$03
	.byte	$03
	.byte	$02
	.byte	$05
	.byte	$07
	.byte	$18
	.byte	$1A
	.byte	$02
	.byte	$12
	.byte	$12
	.byte	$12
	.byte	$12
	.byte	$03
	.byte	$11
	.byte	$11
	.byte	$11
	.byte	$11
	.byte	$03
	.byte	$01
	.byte	$01
	.byte	$01
	.byte	$01
	.byte	$03
	.byte	$02
	.byte	$02
	.byte	$02
	.byte	$02
	.byte	$03
	.byte	$03
	.byte	$03
	.byte	$03
	.byte	$03
	.byte	$03
	.byte	$05
	.byte	$07
	.byte	$18
	.byte	$1A
	.byte	$03
_is_solid:
	.byte	$00
	.byte	$00
	.byte	$00
	.byte	$00
	.byte	$00
	.byte	$00
	.byte	$00
	.byte	$00
	.byte	$00
	.byte	$00
	.byte	$00
	.byte	$00
_Level1_0:
	.byte	$01
	.byte	$0F
	.byte	$0F
	.byte	$0F
	.byte	$0F
	.byte	$0F
	.byte	$0F
	.byte	$0F
	.byte	$0F
	.byte	$0F
	.byte	$0F
	.byte	$0F
	.byte	$0F
	.byte	$0F
	.byte	$0E
	.byte	$0E
	.byte	$01
	.byte	$0F
	.byte	$0F
	.byte	$0F
	.byte	$0F
	.byte	$0F
	.byte	$0F
	.byte	$14
	.byte	$14
	.byte	$14
	.byte	$14
	.byte	$0F
	.byte	$0F
	.byte	$0F
	.byte	$0E
	.byte	$0E
	.byte	$01
	.byte	$0F
	.byte	$0F
	.byte	$0F
	.byte	$0F
	.byte	$0F
	.byte	$0F
	.byte	$14
	.byte	$09
	.byte	$09
	.byte	$14
	.byte	$0F
	.byte	$0F
	.byte	$0F
	.byte	$0E
	.byte	$0E
	.byte	$01
	.byte	$0F
	.byte	$0F
	.byte	$0F
	.byte	$0F
	.byte	$0F
	.byte	$0F
	.byte	$14
	.byte	$0B
	.byte	$0B
	.byte	$14
	.byte	$0F
	.byte	$0F
	.byte	$0F
	.byte	$0E
	.byte	$0E
	.byte	$01
	.byte	$0F
	.byte	$0F
	.byte	$0F
	.byte	$0F
	.byte	$0F
	.byte	$0F
	.byte	$14
	.byte	$14
	.byte	$14
	.byte	$14
	.byte	$0F
	.byte	$0F
	.byte	$0F
	.byte	$0E
	.byte	$0E
	.byte	$01
	.byte	$0F
	.byte	$0F
	.byte	$0F
	.byte	$0F
	.byte	$0F
	.byte	$0F
	.byte	$0E
	.byte	$0E
	.byte	$0E
	.byte	$0E
	.byte	$0F
	.byte	$0F
	.byte	$0F
	.byte	$0F
	.byte	$0F
	.byte	$01
	.byte	$0F
	.byte	$0F
	.byte	$0F
	.byte	$0F
	.byte	$0F
	.byte	$0F
	.byte	$0E
	.byte	$0E
	.byte	$0E
	.byte	$0E
	.byte	$0F
	.byte	$0F
	.byte	$0F
	.byte	$0F
	.byte	$0F
	.byte	$01
	.byte	$04
	.byte	$04
	.byte	$04
	.byte	$04
	.byte	$04
	.byte	$04
	.byte	$05
	.byte	$05
	.byte	$05
	.byte	$05
	.byte	$04
	.byte	$04
	.byte	$04
	.byte	$04
	.byte	$04
	.byte	$01
	.byte	$04
	.byte	$04
	.byte	$04
	.byte	$04
	.byte	$04
	.byte	$04
	.byte	$05
	.byte	$05
	.byte	$05
	.byte	$05
	.byte	$04
	.byte	$04
	.byte	$04
	.byte	$04
	.byte	$04
	.byte	$01
	.byte	$04
	.byte	$04
	.byte	$04
	.byte	$04
	.byte	$04
	.byte	$04
	.byte	$05
	.byte	$05
	.byte	$05
	.byte	$05
	.byte	$04
	.byte	$04
	.byte	$04
	.byte	$05
	.byte	$05
	.byte	$01
	.byte	$04
	.byte	$04
	.byte	$04
	.byte	$04
	.byte	$04
	.byte	$04
	.byte	$05
	.byte	$05
	.byte	$05
	.byte	$05
	.byte	$04
	.byte	$04
	.byte	$04
	.byte	$05
	.byte	$05
	.byte	$01
	.byte	$04
	.byte	$04
	.byte	$04
	.byte	$04
	.byte	$04
	.byte	$04
	.byte	$05
	.byte	$05
	.byte	$05
	.byte	$05
	.byte	$04
	.byte	$04
	.byte	$04
	.byte	$05
	.byte	$05
	.byte	$01
	.byte	$04
	.byte	$04
	.byte	$04
	.byte	$04
	.byte	$04
	.byte	$04
	.byte	$05
	.byte	$05
	.byte	$05
	.byte	$05
	.byte	$04
	.byte	$04
	.byte	$04
	.byte	$05
	.byte	$05
	.byte	$01
	.byte	$04
	.byte	$04
	.byte	$04
	.byte	$04
	.byte	$04
	.byte	$04
	.byte	$05
	.byte	$05
	.byte	$05
	.byte	$05
	.byte	$04
	.byte	$04
	.byte	$04
	.byte	$05
	.byte	$05
	.byte	$01
	.byte	$01
	.byte	$01
	.byte	$01
	.byte	$01
	.byte	$01
	.byte	$01
	.byte	$01
	.byte	$01
	.byte	$01
	.byte	$01
	.byte	$01
	.byte	$01
	.byte	$01
	.byte	$01
	.byte	$01
_Level1_1:
	.byte	$0E
	.byte	$0E
	.byte	$0E
	.byte	$0F
	.byte	$0F
	.byte	$0F
	.byte	$0F
	.byte	$0F
	.byte	$15
	.byte	$0F
	.byte	$0F
	.byte	$15
	.byte	$0F
	.byte	$0F
	.byte	$0F
	.byte	$0F
	.byte	$10
	.byte	$0E
	.byte	$0E
	.byte	$0F
	.byte	$0F
	.byte	$0F
	.byte	$0F
	.byte	$0F
	.byte	$15
	.byte	$0F
	.byte	$0F
	.byte	$15
	.byte	$0F
	.byte	$0F
	.byte	$0F
	.byte	$14
	.byte	$10
	.byte	$0E
	.byte	$0E
	.byte	$0F
	.byte	$0F
	.byte	$0F
	.byte	$0F
	.byte	$0F
	.byte	$15
	.byte	$0F
	.byte	$0F
	.byte	$15
	.byte	$0F
	.byte	$0F
	.byte	$0F
	.byte	$14
	.byte	$11
	.byte	$0E
	.byte	$0E
	.byte	$0F
	.byte	$0F
	.byte	$0F
	.byte	$0F
	.byte	$0F
	.byte	$15
	.byte	$0F
	.byte	$0F
	.byte	$15
	.byte	$0F
	.byte	$0F
	.byte	$0F
	.byte	$14
	.byte	$0F
	.byte	$0E
	.byte	$0E
	.byte	$0F
	.byte	$0F
	.byte	$0F
	.byte	$0F
	.byte	$0F
	.byte	$15
	.byte	$0F
	.byte	$0F
	.byte	$15
	.byte	$0F
	.byte	$0F
	.byte	$0F
	.byte	$14
	.byte	$0F
	.byte	$0F
	.byte	$0F
	.byte	$0F
	.byte	$0F
	.byte	$0F
	.byte	$0F
	.byte	$0F
	.byte	$15
	.byte	$16
	.byte	$16
	.byte	$15
	.byte	$0F
	.byte	$0F
	.byte	$0F
	.byte	$0E
	.byte	$0F
	.byte	$0F
	.byte	$0F
	.byte	$0F
	.byte	$0F
	.byte	$0F
	.byte	$0F
	.byte	$0F
	.byte	$15
	.byte	$16
	.byte	$16
	.byte	$15
	.byte	$0F
	.byte	$0F
	.byte	$0F
	.byte	$0E
	.byte	$04
	.byte	$04
	.byte	$04
	.byte	$04
	.byte	$04
	.byte	$04
	.byte	$04
	.byte	$04
	.byte	$04
	.byte	$04
	.byte	$04
	.byte	$04
	.byte	$04
	.byte	$04
	.byte	$04
	.byte	$05
	.byte	$04
	.byte	$04
	.byte	$04
	.byte	$04
	.byte	$04
	.byte	$04
	.byte	$04
	.byte	$04
	.byte	$04
	.byte	$04
	.byte	$04
	.byte	$04
	.byte	$04
	.byte	$04
	.byte	$04
	.byte	$05
	.byte	$04
	.byte	$05
	.byte	$05
	.byte	$04
	.byte	$04
	.byte	$04
	.byte	$04
	.byte	$04
	.byte	$04
	.byte	$04
	.byte	$04
	.byte	$04
	.byte	$04
	.byte	$04
	.byte	$04
	.byte	$05
	.byte	$04
	.byte	$05
	.byte	$05
	.byte	$04
	.byte	$04
	.byte	$04
	.byte	$04
	.byte	$04
	.byte	$04
	.byte	$04
	.byte	$04
	.byte	$04
	.byte	$04
	.byte	$04
	.byte	$04
	.byte	$05
	.byte	$05
	.byte	$05
	.byte	$05
	.byte	$04
	.byte	$04
	.byte	$04
	.byte	$04
	.byte	$04
	.byte	$04
	.byte	$04
	.byte	$04
	.byte	$04
	.byte	$04
	.byte	$04
	.byte	$04
	.byte	$05
	.byte	$05
	.byte	$05
	.byte	$05
	.byte	$04
	.byte	$04
	.byte	$04
	.byte	$04
	.byte	$04
	.byte	$04
	.byte	$04
	.byte	$04
	.byte	$04
	.byte	$04
	.byte	$04
	.byte	$04
	.byte	$05
	.byte	$05
	.byte	$05
	.byte	$05
	.byte	$04
	.byte	$04
	.byte	$04
	.byte	$04
	.byte	$04
	.byte	$04
	.byte	$04
	.byte	$04
	.byte	$04
	.byte	$04
	.byte	$04
	.byte	$04
	.byte	$05
	.byte	$01
	.byte	$01
	.byte	$01
	.byte	$01
	.byte	$01
	.byte	$01
	.byte	$01
	.byte	$01
	.byte	$01
	.byte	$01
	.byte	$01
	.byte	$01
	.byte	$01
	.byte	$01
	.byte	$01
	.byte	$01
_Level1_2:
	.byte	$0F
	.byte	$0F
	.byte	$0F
	.byte	$0F
	.byte	$0F
	.byte	$0F
	.byte	$0F
	.byte	$0F
	.byte	$0F
	.byte	$0F
	.byte	$0F
	.byte	$0F
	.byte	$0F
	.byte	$0F
	.byte	$0F
	.byte	$0F
	.byte	$14
	.byte	$14
	.byte	$14
	.byte	$0F
	.byte	$0F
	.byte	$0F
	.byte	$0F
	.byte	$0F
	.byte	$0F
	.byte	$0A
	.byte	$0A
	.byte	$0C
	.byte	$0C
	.byte	$0C
	.byte	$0A
	.byte	$0A
	.byte	$09
	.byte	$09
	.byte	$14
	.byte	$0F
	.byte	$0F
	.byte	$0F
	.byte	$0F
	.byte	$0F
	.byte	$0F
	.byte	$0A
	.byte	$0A
	.byte	$0A
	.byte	$0C
	.byte	$0A
	.byte	$0A
	.byte	$0A
	.byte	$16
	.byte	$16
	.byte	$14
	.byte	$0F
	.byte	$0F
	.byte	$0F
	.byte	$0F
	.byte	$0F
	.byte	$0F
	.byte	$0A
	.byte	$0A
	.byte	$0A
	.byte	$0A
	.byte	$0A
	.byte	$0A
	.byte	$0A
	.byte	$14
	.byte	$14
	.byte	$14
	.byte	$0F
	.byte	$0F
	.byte	$0F
	.byte	$0F
	.byte	$0F
	.byte	$0F
	.byte	$0F
	.byte	$0F
	.byte	$0F
	.byte	$0F
	.byte	$0F
	.byte	$0F
	.byte	$0F
	.byte	$0E
	.byte	$0E
	.byte	$0E
	.byte	$0F
	.byte	$0F
	.byte	$0F
	.byte	$0F
	.byte	$0F
	.byte	$0F
	.byte	$0F
	.byte	$0F
	.byte	$0F
	.byte	$0F
	.byte	$0F
	.byte	$0F
	.byte	$0F
	.byte	$0E
	.byte	$0E
	.byte	$0E
	.byte	$0F
	.byte	$0F
	.byte	$0F
	.byte	$0F
	.byte	$0F
	.byte	$0F
	.byte	$0F
	.byte	$0F
	.byte	$0F
	.byte	$0F
	.byte	$0F
	.byte	$0F
	.byte	$0F
	.byte	$05
	.byte	$05
	.byte	$05
	.byte	$04
	.byte	$04
	.byte	$04
	.byte	$04
	.byte	$04
	.byte	$04
	.byte	$04
	.byte	$04
	.byte	$04
	.byte	$04
	.byte	$04
	.byte	$04
	.byte	$04
	.byte	$05
	.byte	$05
	.byte	$05
	.byte	$04
	.byte	$04
	.byte	$04
	.byte	$04
	.byte	$04
	.byte	$04
	.byte	$04
	.byte	$04
	.byte	$04
	.byte	$04
	.byte	$04
	.byte	$04
	.byte	$04
	.byte	$05
	.byte	$05
	.byte	$05
	.byte	$04
	.byte	$04
	.byte	$04
	.byte	$04
	.byte	$04
	.byte	$04
	.byte	$04
	.byte	$04
	.byte	$04
	.byte	$04
	.byte	$04
	.byte	$04
	.byte	$04
	.byte	$05
	.byte	$05
	.byte	$05
	.byte	$04
	.byte	$04
	.byte	$04
	.byte	$04
	.byte	$04
	.byte	$04
	.byte	$05
	.byte	$05
	.byte	$05
	.byte	$05
	.byte	$05
	.byte	$05
	.byte	$05
	.byte	$05
	.byte	$05
	.byte	$05
	.byte	$04
	.byte	$04
	.byte	$04
	.byte	$04
	.byte	$04
	.byte	$04
	.byte	$05
	.byte	$05
	.byte	$05
	.byte	$05
	.byte	$05
	.byte	$05
	.byte	$05
	.byte	$05
	.byte	$05
	.byte	$05
	.byte	$04
	.byte	$04
	.byte	$04
	.byte	$04
	.byte	$04
	.byte	$04
	.byte	$05
	.byte	$05
	.byte	$05
	.byte	$05
	.byte	$05
	.byte	$05
	.byte	$05
	.byte	$05
	.byte	$05
	.byte	$05
	.byte	$04
	.byte	$04
	.byte	$04
	.byte	$04
	.byte	$04
	.byte	$04
	.byte	$05
	.byte	$05
	.byte	$05
	.byte	$05
	.byte	$05
	.byte	$05
	.byte	$05
	.byte	$01
	.byte	$01
	.byte	$01
	.byte	$01
	.byte	$01
	.byte	$01
	.byte	$01
	.byte	$01
	.byte	$01
	.byte	$01
	.byte	$01
	.byte	$01
	.byte	$01
	.byte	$01
	.byte	$01
	.byte	$01
_Level1_3:
	.byte	$0F
	.byte	$0F
	.byte	$0F
	.byte	$0F
	.byte	$0F
	.byte	$0F
	.byte	$0F
	.byte	$0F
	.byte	$0F
	.byte	$0F
	.byte	$0F
	.byte	$0F
	.byte	$0E
	.byte	$0E
	.byte	$0E
	.byte	$0E
	.byte	$0C
	.byte	$0C
	.byte	$0C
	.byte	$0A
	.byte	$0A
	.byte	$0C
	.byte	$0C
	.byte	$0C
	.byte	$0A
	.byte	$0A
	.byte	$0F
	.byte	$0F
	.byte	$0E
	.byte	$0E
	.byte	$0E
	.byte	$0E
	.byte	$0A
	.byte	$0C
	.byte	$0A
	.byte	$0A
	.byte	$0A
	.byte	$0A
	.byte	$0C
	.byte	$0A
	.byte	$0A
	.byte	$0A
	.byte	$0F
	.byte	$0F
	.byte	$0E
	.byte	$0E
	.byte	$10
	.byte	$0E
	.byte	$0A
	.byte	$0A
	.byte	$0A
	.byte	$0A
	.byte	$0A
	.byte	$0A
	.byte	$0A
	.byte	$0A
	.byte	$0A
	.byte	$0A
	.byte	$0F
	.byte	$0F
	.byte	$0E
	.byte	$0E
	.byte	$10
	.byte	$0E
	.byte	$0F
	.byte	$0F
	.byte	$0F
	.byte	$0F
	.byte	$0F
	.byte	$0F
	.byte	$0F
	.byte	$0F
	.byte	$0F
	.byte	$0F
	.byte	$0F
	.byte	$0F
	.byte	$0E
	.byte	$0E
	.byte	$11
	.byte	$0E
	.byte	$0F
	.byte	$0F
	.byte	$0F
	.byte	$0F
	.byte	$0F
	.byte	$0F
	.byte	$0F
	.byte	$0F
	.byte	$0F
	.byte	$0F
	.byte	$0F
	.byte	$0F
	.byte	$0E
	.byte	$0E
	.byte	$0F
	.byte	$0E
	.byte	$0F
	.byte	$0F
	.byte	$0F
	.byte	$0F
	.byte	$0F
	.byte	$0F
	.byte	$0F
	.byte	$0F
	.byte	$0F
	.byte	$0F
	.byte	$0F
	.byte	$0F
	.byte	$0F
	.byte	$0F
	.byte	$0F
	.byte	$0F
	.byte	$04
	.byte	$04
	.byte	$04
	.byte	$04
	.byte	$04
	.byte	$04
	.byte	$04
	.byte	$04
	.byte	$04
	.byte	$04
	.byte	$04
	.byte	$04
	.byte	$04
	.byte	$04
	.byte	$04
	.byte	$04
	.byte	$04
	.byte	$04
	.byte	$04
	.byte	$04
	.byte	$04
	.byte	$04
	.byte	$04
	.byte	$04
	.byte	$04
	.byte	$04
	.byte	$04
	.byte	$04
	.byte	$05
	.byte	$05
	.byte	$04
	.byte	$05
	.byte	$04
	.byte	$04
	.byte	$04
	.byte	$04
	.byte	$04
	.byte	$04
	.byte	$04
	.byte	$04
	.byte	$04
	.byte	$04
	.byte	$04
	.byte	$04
	.byte	$05
	.byte	$05
	.byte	$04
	.byte	$05
	.byte	$05
	.byte	$05
	.byte	$05
	.byte	$05
	.byte	$05
	.byte	$05
	.byte	$05
	.byte	$05
	.byte	$05
	.byte	$05
	.byte	$04
	.byte	$04
	.byte	$05
	.byte	$05
	.byte	$05
	.byte	$05
	.byte	$05
	.byte	$05
	.byte	$05
	.byte	$05
	.byte	$05
	.byte	$05
	.byte	$05
	.byte	$05
	.byte	$05
	.byte	$05
	.byte	$04
	.byte	$04
	.byte	$05
	.byte	$05
	.byte	$05
	.byte	$05
	.byte	$05
	.byte	$05
	.byte	$05
	.byte	$05
	.byte	$05
	.byte	$05
	.byte	$05
	.byte	$05
	.byte	$05
	.byte	$05
	.byte	$04
	.byte	$04
	.byte	$05
	.byte	$05
	.byte	$05
	.byte	$05
	.byte	$05
	.byte	$05
	.byte	$05
	.byte	$05
	.byte	$05
	.byte	$05
	.byte	$05
	.byte	$05
	.byte	$05
	.byte	$05
	.byte	$04
	.byte	$04
	.byte	$05
	.byte	$05
	.byte	$05
	.byte	$05
	.byte	$01
	.byte	$01
	.byte	$01
	.byte	$01
	.byte	$01
	.byte	$01
	.byte	$01
	.byte	$01
	.byte	$01
	.byte	$01
	.byte	$01
	.byte	$01
	.byte	$01
	.byte	$01
	.byte	$01
	.byte	$01
_Level1_4:
	.byte	$0E
	.byte	$0F
	.byte	$0F
	.byte	$0F
	.byte	$0A
	.byte	$0A
	.byte	$0A
	.byte	$0A
	.byte	$0A
	.byte	$0A
	.byte	$0A
	.byte	$0A
	.byte	$0A
	.byte	$0A
	.byte	$0A
	.byte	$0A
	.byte	$0E
	.byte	$0F
	.byte	$0F
	.byte	$0F
	.byte	$0A
	.byte	$0A
	.byte	$0A
	.byte	$0A
	.byte	$0A
	.byte	$0A
	.byte	$0A
	.byte	$0A
	.byte	$0A
	.byte	$0A
	.byte	$0A
	.byte	$0A
	.byte	$0E
	.byte	$0F
	.byte	$0F
	.byte	$0F
	.byte	$0A
	.byte	$0A
	.byte	$0A
	.byte	$0A
	.byte	$0A
	.byte	$0A
	.byte	$0A
	.byte	$0A
	.byte	$0A
	.byte	$0A
	.byte	$0A
	.byte	$0A
	.byte	$0E
	.byte	$0F
	.byte	$0F
	.byte	$0F
	.byte	$0A
	.byte	$0A
	.byte	$0A
	.byte	$0A
	.byte	$0A
	.byte	$0A
	.byte	$0A
	.byte	$0A
	.byte	$0A
	.byte	$0A
	.byte	$0A
	.byte	$0A
	.byte	$0E
	.byte	$0F
	.byte	$0F
	.byte	$0F
	.byte	$0B
	.byte	$0B
	.byte	$0B
	.byte	$0B
	.byte	$0B
	.byte	$0B
	.byte	$0B
	.byte	$0B
	.byte	$0B
	.byte	$0B
	.byte	$0B
	.byte	$0B
	.byte	$0E
	.byte	$0F
	.byte	$0F
	.byte	$0F
	.byte	$0B
	.byte	$0B
	.byte	$0B
	.byte	$0B
	.byte	$0B
	.byte	$0B
	.byte	$0B
	.byte	$0B
	.byte	$0B
	.byte	$0B
	.byte	$0B
	.byte	$0B
	.byte	$0F
	.byte	$0F
	.byte	$0F
	.byte	$0F
	.byte	$0F
	.byte	$0F
	.byte	$0F
	.byte	$0F
	.byte	$0F
	.byte	$0F
	.byte	$0F
	.byte	$0F
	.byte	$0F
	.byte	$0F
	.byte	$0F
	.byte	$0F
	.byte	$04
	.byte	$04
	.byte	$04
	.byte	$04
	.byte	$04
	.byte	$04
	.byte	$04
	.byte	$04
	.byte	$04
	.byte	$04
	.byte	$04
	.byte	$04
	.byte	$04
	.byte	$04
	.byte	$04
	.byte	$04
	.byte	$05
	.byte	$04
	.byte	$04
	.byte	$04
	.byte	$05
	.byte	$05
	.byte	$05
	.byte	$05
	.byte	$05
	.byte	$05
	.byte	$05
	.byte	$05
	.byte	$05
	.byte	$05
	.byte	$05
	.byte	$05
	.byte	$05
	.byte	$04
	.byte	$04
	.byte	$04
	.byte	$05
	.byte	$05
	.byte	$05
	.byte	$05
	.byte	$05
	.byte	$05
	.byte	$05
	.byte	$05
	.byte	$05
	.byte	$05
	.byte	$05
	.byte	$05
	.byte	$05
	.byte	$04
	.byte	$04
	.byte	$04
	.byte	$05
	.byte	$05
	.byte	$05
	.byte	$05
	.byte	$05
	.byte	$05
	.byte	$05
	.byte	$05
	.byte	$05
	.byte	$05
	.byte	$05
	.byte	$05
	.byte	$05
	.byte	$04
	.byte	$04
	.byte	$04
	.byte	$05
	.byte	$05
	.byte	$05
	.byte	$05
	.byte	$05
	.byte	$05
	.byte	$05
	.byte	$05
	.byte	$05
	.byte	$05
	.byte	$05
	.byte	$05
	.byte	$05
	.byte	$04
	.byte	$04
	.byte	$04
	.byte	$05
	.byte	$05
	.byte	$05
	.byte	$05
	.byte	$05
	.byte	$05
	.byte	$05
	.byte	$05
	.byte	$05
	.byte	$05
	.byte	$05
	.byte	$05
	.byte	$05
	.byte	$04
	.byte	$04
	.byte	$04
	.byte	$05
	.byte	$05
	.byte	$05
	.byte	$05
	.byte	$05
	.byte	$05
	.byte	$05
	.byte	$05
	.byte	$05
	.byte	$05
	.byte	$05
	.byte	$05
	.byte	$01
	.byte	$01
	.byte	$01
	.byte	$01
	.byte	$01
	.byte	$01
	.byte	$01
	.byte	$01
	.byte	$01
	.byte	$01
	.byte	$01
	.byte	$01
	.byte	$01
	.byte	$01
	.byte	$01
	.byte	$01
_Level1_5:
	.byte	$0A
	.byte	$0A
	.byte	$0A
	.byte	$0A
	.byte	$0A
	.byte	$0A
	.byte	$0F
	.byte	$0F
	.byte	$0F
	.byte	$0E
	.byte	$0E
	.byte	$0E
	.byte	$0E
	.byte	$0E
	.byte	$0F
	.byte	$0F
	.byte	$0A
	.byte	$0A
	.byte	$0A
	.byte	$0A
	.byte	$0A
	.byte	$0A
	.byte	$0F
	.byte	$0F
	.byte	$0F
	.byte	$0E
	.byte	$0E
	.byte	$0E
	.byte	$0E
	.byte	$0E
	.byte	$0F
	.byte	$0F
	.byte	$0A
	.byte	$0A
	.byte	$0A
	.byte	$0A
	.byte	$0A
	.byte	$0A
	.byte	$0F
	.byte	$0F
	.byte	$0F
	.byte	$0E
	.byte	$0E
	.byte	$10
	.byte	$0E
	.byte	$0E
	.byte	$0F
	.byte	$0F
	.byte	$0A
	.byte	$0A
	.byte	$0A
	.byte	$0A
	.byte	$0A
	.byte	$0A
	.byte	$0F
	.byte	$0F
	.byte	$0F
	.byte	$0E
	.byte	$0E
	.byte	$10
	.byte	$0E
	.byte	$0E
	.byte	$0F
	.byte	$0F
	.byte	$0B
	.byte	$0B
	.byte	$0B
	.byte	$0B
	.byte	$0B
	.byte	$0B
	.byte	$0F
	.byte	$0F
	.byte	$0F
	.byte	$0E
	.byte	$0E
	.byte	$11
	.byte	$0E
	.byte	$0E
	.byte	$0F
	.byte	$0F
	.byte	$0B
	.byte	$0B
	.byte	$0B
	.byte	$0B
	.byte	$0B
	.byte	$0B
	.byte	$0F
	.byte	$0F
	.byte	$0F
	.byte	$0E
	.byte	$0E
	.byte	$0F
	.byte	$0E
	.byte	$0E
	.byte	$0F
	.byte	$0F
	.byte	$0F
	.byte	$0F
	.byte	$0F
	.byte	$0F
	.byte	$0F
	.byte	$0F
	.byte	$0F
	.byte	$0F
	.byte	$0F
	.byte	$0F
	.byte	$0F
	.byte	$0F
	.byte	$0F
	.byte	$0F
	.byte	$0F
	.byte	$0F
	.byte	$04
	.byte	$04
	.byte	$04
	.byte	$04
	.byte	$04
	.byte	$04
	.byte	$04
	.byte	$04
	.byte	$04
	.byte	$04
	.byte	$04
	.byte	$04
	.byte	$04
	.byte	$04
	.byte	$04
	.byte	$04
	.byte	$05
	.byte	$05
	.byte	$05
	.byte	$05
	.byte	$05
	.byte	$05
	.byte	$04
	.byte	$04
	.byte	$04
	.byte	$05
	.byte	$05
	.byte	$04
	.byte	$05
	.byte	$05
	.byte	$04
	.byte	$04
	.byte	$05
	.byte	$05
	.byte	$05
	.byte	$05
	.byte	$05
	.byte	$05
	.byte	$04
	.byte	$04
	.byte	$04
	.byte	$05
	.byte	$05
	.byte	$04
	.byte	$05
	.byte	$05
	.byte	$04
	.byte	$04
	.byte	$05
	.byte	$05
	.byte	$05
	.byte	$05
	.byte	$05
	.byte	$05
	.byte	$04
	.byte	$04
	.byte	$04
	.byte	$05
	.byte	$05
	.byte	$05
	.byte	$05
	.byte	$05
	.byte	$04
	.byte	$04
	.byte	$05
	.byte	$05
	.byte	$05
	.byte	$05
	.byte	$05
	.byte	$05
	.byte	$04
	.byte	$04
	.byte	$04
	.byte	$05
	.byte	$05
	.byte	$05
	.byte	$05
	.byte	$05
	.byte	$04
	.byte	$04
	.byte	$05
	.byte	$05
	.byte	$05
	.byte	$05
	.byte	$05
	.byte	$05
	.byte	$04
	.byte	$04
	.byte	$04
	.byte	$05
	.byte	$05
	.byte	$05
	.byte	$05
	.byte	$05
	.byte	$04
	.byte	$04
	.byte	$05
	.byte	$05
	.byte	$05
	.byte	$05
	.byte	$05
	.byte	$05
	.byte	$04
	.byte	$04
	.byte	$04
	.byte	$05
	.byte	$05
	.byte	$05
	.byte	$05
	.byte	$05
	.byte	$04
	.byte	$04
	.byte	$01
	.byte	$01
	.byte	$01
	.byte	$01
	.byte	$01
	.byte	$01
	.byte	$01
	.byte	$01
	.byte	$01
	.byte	$01
	.byte	$01
	.byte	$01
	.byte	$01
	.byte	$01
	.byte	$01
	.byte	$01
_Level1_6:
	.byte	$0F
	.byte	$0F
	.byte	$0F
	.byte	$0F
	.byte	$0F
	.byte	$0F
	.byte	$0F
	.byte	$0F
	.byte	$0F
	.byte	$0F
	.byte	$0F
	.byte	$0F
	.byte	$0F
	.byte	$0F
	.byte	$0F
	.byte	$0F
	.byte	$0F
	.byte	$0F
	.byte	$0F
	.byte	$0F
	.byte	$07
	.byte	$07
	.byte	$0F
	.byte	$0F
	.byte	$0F
	.byte	$0F
	.byte	$0F
	.byte	$0F
	.byte	$14
	.byte	$14
	.byte	$14
	.byte	$14
	.byte	$0F
	.byte	$0F
	.byte	$0F
	.byte	$07
	.byte	$07
	.byte	$0F
	.byte	$0F
	.byte	$0F
	.byte	$0F
	.byte	$0F
	.byte	$0F
	.byte	$0F
	.byte	$14
	.byte	$0A
	.byte	$10
	.byte	$14
	.byte	$14
	.byte	$14
	.byte	$14
	.byte	$07
	.byte	$14
	.byte	$0F
	.byte	$0F
	.byte	$0F
	.byte	$0F
	.byte	$0F
	.byte	$0F
	.byte	$0F
	.byte	$14
	.byte	$16
	.byte	$16
	.byte	$14
	.byte	$14
	.byte	$11
	.byte	$07
	.byte	$07
	.byte	$14
	.byte	$0F
	.byte	$0F
	.byte	$0F
	.byte	$0F
	.byte	$0F
	.byte	$0F
	.byte	$0F
	.byte	$14
	.byte	$14
	.byte	$14
	.byte	$14
	.byte	$14
	.byte	$11
	.byte	$10
	.byte	$11
	.byte	$14
	.byte	$0F
	.byte	$0F
	.byte	$0F
	.byte	$0F
	.byte	$0F
	.byte	$0F
	.byte	$0F
	.byte	$0E
	.byte	$0E
	.byte	$0E
	.byte	$0E
	.byte	$14
	.byte	$10
	.byte	$10
	.byte	$10
	.byte	$14
	.byte	$0F
	.byte	$0F
	.byte	$0F
	.byte	$0F
	.byte	$0F
	.byte	$0F
	.byte	$0F
	.byte	$0E
	.byte	$0E
	.byte	$0E
	.byte	$0E
	.byte	$05
	.byte	$05
	.byte	$05
	.byte	$05
	.byte	$05
	.byte	$04
	.byte	$04
	.byte	$04
	.byte	$04
	.byte	$04
	.byte	$04
	.byte	$04
	.byte	$05
	.byte	$05
	.byte	$05
	.byte	$05
	.byte	$05
	.byte	$05
	.byte	$05
	.byte	$05
	.byte	$05
	.byte	$04
	.byte	$04
	.byte	$04
	.byte	$04
	.byte	$04
	.byte	$04
	.byte	$04
	.byte	$05
	.byte	$05
	.byte	$05
	.byte	$05
	.byte	$05
	.byte	$05
	.byte	$05
	.byte	$05
	.byte	$05
	.byte	$04
	.byte	$04
	.byte	$04
	.byte	$04
	.byte	$04
	.byte	$04
	.byte	$04
	.byte	$05
	.byte	$05
	.byte	$05
	.byte	$05
	.byte	$05
	.byte	$05
	.byte	$05
	.byte	$05
	.byte	$05
	.byte	$04
	.byte	$04
	.byte	$04
	.byte	$04
	.byte	$04
	.byte	$04
	.byte	$04
	.byte	$05
	.byte	$05
	.byte	$05
	.byte	$05
	.byte	$05
	.byte	$05
	.byte	$05
	.byte	$05
	.byte	$05
	.byte	$04
	.byte	$04
	.byte	$04
	.byte	$04
	.byte	$04
	.byte	$04
	.byte	$04
	.byte	$05
	.byte	$05
	.byte	$05
	.byte	$05
	.byte	$05
	.byte	$05
	.byte	$05
	.byte	$05
	.byte	$05
	.byte	$04
	.byte	$04
	.byte	$04
	.byte	$04
	.byte	$04
	.byte	$04
	.byte	$04
	.byte	$05
	.byte	$05
	.byte	$05
	.byte	$05
	.byte	$05
	.byte	$05
	.byte	$05
	.byte	$05
	.byte	$05
	.byte	$04
	.byte	$04
	.byte	$04
	.byte	$04
	.byte	$04
	.byte	$04
	.byte	$04
	.byte	$05
	.byte	$05
	.byte	$05
	.byte	$05
	.byte	$01
	.byte	$01
	.byte	$01
	.byte	$01
	.byte	$01
	.byte	$01
	.byte	$01
	.byte	$01
	.byte	$01
	.byte	$01
	.byte	$01
	.byte	$01
	.byte	$01
	.byte	$01
	.byte	$01
	.byte	$01
_Level1_7:
	.byte	$0F
	.byte	$0F
	.byte	$0F
	.byte	$0F
	.byte	$0F
	.byte	$0F
	.byte	$0F
	.byte	$0F
	.byte	$1A
	.byte	$0E
	.byte	$0E
	.byte	$0E
	.byte	$0E
	.byte	$0E
	.byte	$1A
	.byte	$0F
	.byte	$0F
	.byte	$0F
	.byte	$0F
	.byte	$0F
	.byte	$0F
	.byte	$0F
	.byte	$0F
	.byte	$0F
	.byte	$1A
	.byte	$0E
	.byte	$0E
	.byte	$10
	.byte	$0E
	.byte	$0E
	.byte	$1A
	.byte	$0F
	.byte	$0F
	.byte	$0F
	.byte	$0F
	.byte	$0F
	.byte	$0F
	.byte	$0F
	.byte	$0F
	.byte	$0F
	.byte	$1A
	.byte	$0E
	.byte	$0E
	.byte	$10
	.byte	$0E
	.byte	$0E
	.byte	$1A
	.byte	$0F
	.byte	$0F
	.byte	$0F
	.byte	$0F
	.byte	$0F
	.byte	$0F
	.byte	$0F
	.byte	$0F
	.byte	$0F
	.byte	$1A
	.byte	$0E
	.byte	$0E
	.byte	$11
	.byte	$0E
	.byte	$0E
	.byte	$1A
	.byte	$0F
	.byte	$0F
	.byte	$0F
	.byte	$0F
	.byte	$0F
	.byte	$0F
	.byte	$0F
	.byte	$0F
	.byte	$0F
	.byte	$1A
	.byte	$0E
	.byte	$0E
	.byte	$0F
	.byte	$0E
	.byte	$0E
	.byte	$1A
	.byte	$0F
	.byte	$0F
	.byte	$0F
	.byte	$0F
	.byte	$0F
	.byte	$0F
	.byte	$0F
	.byte	$0F
	.byte	$0F
	.byte	$1A
	.byte	$15
	.byte	$15
	.byte	$15
	.byte	$16
	.byte	$16
	.byte	$1A
	.byte	$0F
	.byte	$0F
	.byte	$0F
	.byte	$0F
	.byte	$0F
	.byte	$0F
	.byte	$0F
	.byte	$0F
	.byte	$0F
	.byte	$1A
	.byte	$15
	.byte	$15
	.byte	$15
	.byte	$16
	.byte	$16
	.byte	$1A
	.byte	$0F
	.byte	$04
	.byte	$04
	.byte	$04
	.byte	$04
	.byte	$04
	.byte	$04
	.byte	$04
	.byte	$04
	.byte	$04
	.byte	$04
	.byte	$04
	.byte	$04
	.byte	$04
	.byte	$04
	.byte	$04
	.byte	$04
	.byte	$04
	.byte	$04
	.byte	$04
	.byte	$04
	.byte	$04
	.byte	$04
	.byte	$04
	.byte	$04
	.byte	$04
	.byte	$04
	.byte	$04
	.byte	$04
	.byte	$04
	.byte	$04
	.byte	$04
	.byte	$04
	.byte	$04
	.byte	$04
	.byte	$04
	.byte	$04
	.byte	$04
	.byte	$04
	.byte	$04
	.byte	$04
	.byte	$04
	.byte	$05
	.byte	$05
	.byte	$04
	.byte	$05
	.byte	$05
	.byte	$04
	.byte	$04
	.byte	$04
	.byte	$04
	.byte	$04
	.byte	$04
	.byte	$04
	.byte	$04
	.byte	$04
	.byte	$04
	.byte	$04
	.byte	$05
	.byte	$05
	.byte	$04
	.byte	$05
	.byte	$05
	.byte	$04
	.byte	$04
	.byte	$04
	.byte	$04
	.byte	$04
	.byte	$04
	.byte	$04
	.byte	$04
	.byte	$04
	.byte	$04
	.byte	$04
	.byte	$05
	.byte	$05
	.byte	$05
	.byte	$05
	.byte	$05
	.byte	$04
	.byte	$04
	.byte	$04
	.byte	$04
	.byte	$04
	.byte	$04
	.byte	$04
	.byte	$04
	.byte	$04
	.byte	$04
	.byte	$04
	.byte	$05
	.byte	$05
	.byte	$05
	.byte	$05
	.byte	$05
	.byte	$04
	.byte	$04
	.byte	$04
	.byte	$04
	.byte	$04
	.byte	$04
	.byte	$04
	.byte	$04
	.byte	$04
	.byte	$04
	.byte	$04
	.byte	$05
	.byte	$05
	.byte	$05
	.byte	$05
	.byte	$05
	.byte	$04
	.byte	$04
	.byte	$01
	.byte	$01
	.byte	$01
	.byte	$01
	.byte	$01
	.byte	$01
	.byte	$01
	.byte	$01
	.byte	$01
	.byte	$01
	.byte	$01
	.byte	$01
	.byte	$01
	.byte	$01
	.byte	$01
	.byte	$01
_Level1_8:
	.byte	$0F
	.byte	$0F
	.byte	$0F
	.byte	$0F
	.byte	$0F
	.byte	$0F
	.byte	$0F
	.byte	$0F
	.byte	$0F
	.byte	$0F
	.byte	$0F
	.byte	$0F
	.byte	$0F
	.byte	$0F
	.byte	$0F
	.byte	$0F
	.byte	$0F
	.byte	$0F
	.byte	$0F
	.byte	$0F
	.byte	$0F
	.byte	$0F
	.byte	$0F
	.byte	$0F
	.byte	$0F
	.byte	$0F
	.byte	$0F
	.byte	$0F
	.byte	$0F
	.byte	$0F
	.byte	$0F
	.byte	$0F
	.byte	$0F
	.byte	$0F
	.byte	$0F
	.byte	$0F
	.byte	$0F
	.byte	$0F
	.byte	$0A
	.byte	$0A
	.byte	$15
	.byte	$0A
	.byte	$0A
	.byte	$0A
	.byte	$0A
	.byte	$0A
	.byte	$0C
	.byte	$0A
	.byte	$0F
	.byte	$0F
	.byte	$0F
	.byte	$0F
	.byte	$0F
	.byte	$0F
	.byte	$0A
	.byte	$15
	.byte	$15
	.byte	$15
	.byte	$0A
	.byte	$0A
	.byte	$0A
	.byte	$0C
	.byte	$0C
	.byte	$0C
	.byte	$0F
	.byte	$0F
	.byte	$0F
	.byte	$0F
	.byte	$0F
	.byte	$0F
	.byte	$0A
	.byte	$0A
	.byte	$14
	.byte	$0A
	.byte	$0A
	.byte	$0A
	.byte	$0A
	.byte	$0A
	.byte	$0A
	.byte	$0A
	.byte	$0F
	.byte	$0F
	.byte	$0F
	.byte	$0F
	.byte	$0F
	.byte	$0F
	.byte	$0F
	.byte	$0F
	.byte	$0F
	.byte	$0F
	.byte	$0F
	.byte	$0F
	.byte	$0F
	.byte	$0F
	.byte	$0F
	.byte	$0F
	.byte	$0F
	.byte	$0F
	.byte	$0F
	.byte	$0F
	.byte	$0F
	.byte	$0F
	.byte	$0F
	.byte	$0F
	.byte	$0F
	.byte	$0F
	.byte	$0F
	.byte	$0F
	.byte	$0F
	.byte	$0F
	.byte	$0F
	.byte	$0F
	.byte	$04
	.byte	$04
	.byte	$04
	.byte	$04
	.byte	$04
	.byte	$04
	.byte	$04
	.byte	$04
	.byte	$04
	.byte	$04
	.byte	$04
	.byte	$04
	.byte	$04
	.byte	$04
	.byte	$04
	.byte	$04
	.byte	$04
	.byte	$04
	.byte	$04
	.byte	$04
	.byte	$04
	.byte	$04
	.byte	$04
	.byte	$04
	.byte	$04
	.byte	$04
	.byte	$04
	.byte	$04
	.byte	$04
	.byte	$04
	.byte	$04
	.byte	$04
	.byte	$04
	.byte	$04
	.byte	$04
	.byte	$04
	.byte	$04
	.byte	$04
	.byte	$05
	.byte	$05
	.byte	$05
	.byte	$05
	.byte	$05
	.byte	$05
	.byte	$05
	.byte	$05
	.byte	$05
	.byte	$05
	.byte	$04
	.byte	$04
	.byte	$04
	.byte	$04
	.byte	$04
	.byte	$04
	.byte	$05
	.byte	$05
	.byte	$05
	.byte	$05
	.byte	$05
	.byte	$05
	.byte	$05
	.byte	$05
	.byte	$05
	.byte	$05
	.byte	$04
	.byte	$04
	.byte	$04
	.byte	$04
	.byte	$04
	.byte	$04
	.byte	$05
	.byte	$05
	.byte	$05
	.byte	$05
	.byte	$05
	.byte	$05
	.byte	$05
	.byte	$05
	.byte	$05
	.byte	$05
	.byte	$04
	.byte	$04
	.byte	$04
	.byte	$04
	.byte	$04
	.byte	$04
	.byte	$05
	.byte	$05
	.byte	$05
	.byte	$05
	.byte	$05
	.byte	$05
	.byte	$05
	.byte	$05
	.byte	$05
	.byte	$05
	.byte	$04
	.byte	$04
	.byte	$04
	.byte	$04
	.byte	$04
	.byte	$04
	.byte	$05
	.byte	$05
	.byte	$05
	.byte	$05
	.byte	$05
	.byte	$05
	.byte	$05
	.byte	$05
	.byte	$05
	.byte	$05
	.byte	$01
	.byte	$01
	.byte	$01
	.byte	$01
	.byte	$01
	.byte	$01
	.byte	$01
	.byte	$01
	.byte	$01
	.byte	$01
	.byte	$01
	.byte	$01
	.byte	$01
	.byte	$01
	.byte	$01
	.byte	$01
_Level1_9:
	.byte	$0F
	.byte	$0F
	.byte	$0F
	.byte	$0F
	.byte	$0F
	.byte	$0F
	.byte	$0F
	.byte	$0F
	.byte	$0F
	.byte	$0F
	.byte	$0F
	.byte	$0F
	.byte	$0F
	.byte	$0F
	.byte	$0F
	.byte	$01
	.byte	$0F
	.byte	$0F
	.byte	$0F
	.byte	$0F
	.byte	$0F
	.byte	$0F
	.byte	$0F
	.byte	$0F
	.byte	$0F
	.byte	$0F
	.byte	$0F
	.byte	$0F
	.byte	$0F
	.byte	$0F
	.byte	$0F
	.byte	$01
	.byte	$0A
	.byte	$0A
	.byte	$0A
	.byte	$0A
	.byte	$0C
	.byte	$0A
	.byte	$0A
	.byte	$0A
	.byte	$0A
	.byte	$15
	.byte	$0A
	.byte	$0A
	.byte	$0F
	.byte	$0F
	.byte	$0F
	.byte	$01
	.byte	$0A
	.byte	$0A
	.byte	$0A
	.byte	$0C
	.byte	$0C
	.byte	$0C
	.byte	$0A
	.byte	$0A
	.byte	$15
	.byte	$15
	.byte	$15
	.byte	$0A
	.byte	$0F
	.byte	$0F
	.byte	$0F
	.byte	$01
	.byte	$0A
	.byte	$0A
	.byte	$0A
	.byte	$0A
	.byte	$0A
	.byte	$0A
	.byte	$0A
	.byte	$0A
	.byte	$0A
	.byte	$14
	.byte	$0A
	.byte	$0A
	.byte	$0F
	.byte	$0F
	.byte	$0F
	.byte	$01
	.byte	$0F
	.byte	$0F
	.byte	$0F
	.byte	$0F
	.byte	$0F
	.byte	$0F
	.byte	$0F
	.byte	$0F
	.byte	$0F
	.byte	$0F
	.byte	$0F
	.byte	$0F
	.byte	$0F
	.byte	$0F
	.byte	$0F
	.byte	$01
	.byte	$0F
	.byte	$0F
	.byte	$0F
	.byte	$0F
	.byte	$0F
	.byte	$0F
	.byte	$0F
	.byte	$0F
	.byte	$0F
	.byte	$0F
	.byte	$0F
	.byte	$0F
	.byte	$0F
	.byte	$0F
	.byte	$0F
	.byte	$01
	.byte	$04
	.byte	$04
	.byte	$04
	.byte	$04
	.byte	$04
	.byte	$04
	.byte	$04
	.byte	$04
	.byte	$04
	.byte	$04
	.byte	$04
	.byte	$04
	.byte	$04
	.byte	$04
	.byte	$04
	.byte	$01
	.byte	$04
	.byte	$04
	.byte	$04
	.byte	$04
	.byte	$04
	.byte	$04
	.byte	$04
	.byte	$04
	.byte	$04
	.byte	$04
	.byte	$04
	.byte	$04
	.byte	$04
	.byte	$04
	.byte	$04
	.byte	$01
	.byte	$05
	.byte	$05
	.byte	$05
	.byte	$05
	.byte	$05
	.byte	$05
	.byte	$05
	.byte	$05
	.byte	$05
	.byte	$05
	.byte	$05
	.byte	$05
	.byte	$04
	.byte	$11
	.byte	$11
	.byte	$01
	.byte	$05
	.byte	$05
	.byte	$05
	.byte	$05
	.byte	$05
	.byte	$05
	.byte	$05
	.byte	$05
	.byte	$05
	.byte	$05
	.byte	$05
	.byte	$05
	.byte	$04
	.byte	$11
	.byte	$11
	.byte	$01
	.byte	$05
	.byte	$05
	.byte	$05
	.byte	$05
	.byte	$05
	.byte	$05
	.byte	$05
	.byte	$05
	.byte	$05
	.byte	$05
	.byte	$05
	.byte	$05
	.byte	$04
	.byte	$11
	.byte	$11
	.byte	$01
	.byte	$05
	.byte	$05
	.byte	$05
	.byte	$05
	.byte	$05
	.byte	$05
	.byte	$05
	.byte	$05
	.byte	$05
	.byte	$05
	.byte	$05
	.byte	$05
	.byte	$04
	.byte	$11
	.byte	$11
	.byte	$01
	.byte	$05
	.byte	$05
	.byte	$05
	.byte	$05
	.byte	$05
	.byte	$05
	.byte	$05
	.byte	$05
	.byte	$05
	.byte	$05
	.byte	$05
	.byte	$05
	.byte	$04
	.byte	$11
	.byte	$11
	.byte	$01
	.byte	$01
	.byte	$01
	.byte	$01
	.byte	$01
	.byte	$01
	.byte	$01
	.byte	$01
	.byte	$01
	.byte	$01
	.byte	$01
	.byte	$01
	.byte	$01
	.byte	$01
	.byte	$01
	.byte	$01
	.byte	$01
_Level1_list:
	.addr	_Level1_0
	.addr	_Level1_1
	.addr	_Level1_2
	.addr	_Level1_3
	.addr	_Level1_4
	.addr	_Level1_5
	.addr	_Level1_6
	.addr	_Level1_7
	.addr	_Level1_8
	.addr	_Level1_9
_Level2_0:
	.byte	$18
	.byte	$14
	.byte	$14
	.byte	$14
	.byte	$14
	.byte	$14
	.byte	$14
	.byte	$14
	.byte	$14
	.byte	$14
	.byte	$14
	.byte	$14
	.byte	$14
	.byte	$14
	.byte	$14
	.byte	$14
	.byte	$18
	.byte	$14
	.byte	$10
	.byte	$14
	.byte	$14
	.byte	$14
	.byte	$14
	.byte	$14
	.byte	$14
	.byte	$10
	.byte	$14
	.byte	$14
	.byte	$14
	.byte	$14
	.byte	$14
	.byte	$14
	.byte	$18
	.byte	$14
	.byte	$10
	.byte	$14
	.byte	$14
	.byte	$14
	.byte	$14
	.byte	$14
	.byte	$14
	.byte	$10
	.byte	$14
	.byte	$14
	.byte	$14
	.byte	$14
	.byte	$14
	.byte	$14
	.byte	$18
	.byte	$14
	.byte	$11
	.byte	$14
	.byte	$14
	.byte	$14
	.byte	$14
	.byte	$14
	.byte	$14
	.byte	$11
	.byte	$14
	.byte	$14
	.byte	$14
	.byte	$14
	.byte	$14
	.byte	$14
	.byte	$18
	.byte	$14
	.byte	$11
	.byte	$14
	.byte	$14
	.byte	$14
	.byte	$14
	.byte	$14
	.byte	$14
	.byte	$11
	.byte	$14
	.byte	$14
	.byte	$14
	.byte	$14
	.byte	$14
	.byte	$14
	.byte	$18
	.byte	$14
	.byte	$14
	.byte	$14
	.byte	$14
	.byte	$14
	.byte	$14
	.byte	$14
	.byte	$14
	.byte	$14
	.byte	$14
	.byte	$14
	.byte	$14
	.byte	$14
	.byte	$14
	.byte	$14
	.byte	$18
	.byte	$14
	.byte	$14
	.byte	$14
	.byte	$14
	.byte	$14
	.byte	$14
	.byte	$14
	.byte	$14
	.byte	$14
	.byte	$14
	.byte	$14
	.byte	$14
	.byte	$14
	.byte	$14
	.byte	$14
	.byte	$18
	.byte	$0E
	.byte	$0E
	.byte	$0E
	.byte	$0E
	.byte	$0E
	.byte	$0E
	.byte	$0E
	.byte	$0E
	.byte	$0E
	.byte	$0E
	.byte	$0E
	.byte	$0E
	.byte	$0E
	.byte	$0E
	.byte	$0E
	.byte	$18
	.byte	$0E
	.byte	$0E
	.byte	$0E
	.byte	$0E
	.byte	$0E
	.byte	$0E
	.byte	$0E
	.byte	$0E
	.byte	$0E
	.byte	$0E
	.byte	$0E
	.byte	$0E
	.byte	$0E
	.byte	$0E
	.byte	$0E
	.byte	$18
	.byte	$0E
	.byte	$0E
	.byte	$0E
	.byte	$0E
	.byte	$0E
	.byte	$0E
	.byte	$0E
	.byte	$0E
	.byte	$0E
	.byte	$0E
	.byte	$0E
	.byte	$0E
	.byte	$0E
	.byte	$0E
	.byte	$0E
	.byte	$18
	.byte	$0E
	.byte	$0E
	.byte	$0E
	.byte	$0E
	.byte	$0E
	.byte	$0E
	.byte	$0E
	.byte	$0E
	.byte	$0E
	.byte	$0E
	.byte	$0E
	.byte	$0E
	.byte	$0E
	.byte	$0E
	.byte	$0E
	.byte	$18
	.byte	$0E
	.byte	$0E
	.byte	$0E
	.byte	$0E
	.byte	$0E
	.byte	$0E
	.byte	$0E
	.byte	$0E
	.byte	$0E
	.byte	$0E
	.byte	$0E
	.byte	$0E
	.byte	$0E
	.byte	$0E
	.byte	$0E
	.byte	$18
	.byte	$0E
	.byte	$0E
	.byte	$0E
	.byte	$0E
	.byte	$0E
	.byte	$0E
	.byte	$0E
	.byte	$0E
	.byte	$0E
	.byte	$0E
	.byte	$0E
	.byte	$0E
	.byte	$0E
	.byte	$0E
	.byte	$0E
	.byte	$18
	.byte	$0E
	.byte	$0E
	.byte	$0E
	.byte	$0E
	.byte	$0E
	.byte	$0E
	.byte	$0E
	.byte	$0E
	.byte	$0E
	.byte	$0E
	.byte	$0E
	.byte	$0E
	.byte	$0E
	.byte	$0E
	.byte	$0E
	.byte	$18
	.byte	$0E
	.byte	$0E
	.byte	$0E
	.byte	$0E
	.byte	$0E
	.byte	$0E
	.byte	$0E
	.byte	$0E
	.byte	$0E
	.byte	$0E
	.byte	$0E
	.byte	$0E
	.byte	$0E
	.byte	$0E
	.byte	$0E
_Level2_1:
	.byte	$14
	.byte	$14
	.byte	$14
	.byte	$14
	.byte	$14
	.byte	$14
	.byte	$14
	.byte	$14
	.byte	$14
	.byte	$14
	.byte	$14
	.byte	$14
	.byte	$14
	.byte	$14
	.byte	$14
	.byte	$14
	.byte	$10
	.byte	$14
	.byte	$14
	.byte	$14
	.byte	$14
	.byte	$14
	.byte	$14
	.byte	$10
	.byte	$14
	.byte	$14
	.byte	$14
	.byte	$14
	.byte	$14
	.byte	$14
	.byte	$10
	.byte	$14
	.byte	$10
	.byte	$14
	.byte	$14
	.byte	$14
	.byte	$14
	.byte	$14
	.byte	$14
	.byte	$10
	.byte	$14
	.byte	$14
	.byte	$14
	.byte	$14
	.byte	$14
	.byte	$14
	.byte	$10
	.byte	$14
	.byte	$11
	.byte	$14
	.byte	$14
	.byte	$14
	.byte	$14
	.byte	$14
	.byte	$14
	.byte	$11
	.byte	$14
	.byte	$14
	.byte	$14
	.byte	$14
	.byte	$14
	.byte	$14
	.byte	$11
	.byte	$14
	.byte	$11
	.byte	$14
	.byte	$14
	.byte	$14
	.byte	$14
	.byte	$14
	.byte	$14
	.byte	$11
	.byte	$14
	.byte	$14
	.byte	$14
	.byte	$14
	.byte	$14
	.byte	$14
	.byte	$11
	.byte	$14
	.byte	$14
	.byte	$14
	.byte	$14
	.byte	$14
	.byte	$14
	.byte	$14
	.byte	$14
	.byte	$14
	.byte	$14
	.byte	$14
	.byte	$14
	.byte	$14
	.byte	$14
	.byte	$14
	.byte	$14
	.byte	$14
	.byte	$14
	.byte	$14
	.byte	$14
	.byte	$14
	.byte	$14
	.byte	$14
	.byte	$14
	.byte	$14
	.byte	$14
	.byte	$14
	.byte	$14
	.byte	$14
	.byte	$14
	.byte	$14
	.byte	$14
	.byte	$14
	.byte	$0E
	.byte	$0E
	.byte	$0E
	.byte	$0E
	.byte	$0E
	.byte	$0E
	.byte	$0E
	.byte	$0E
	.byte	$0E
	.byte	$0E
	.byte	$0E
	.byte	$0E
	.byte	$0E
	.byte	$0E
	.byte	$0E
	.byte	$0E
	.byte	$0E
	.byte	$0E
	.byte	$0E
	.byte	$0E
	.byte	$0E
	.byte	$0E
	.byte	$0E
	.byte	$0E
	.byte	$0E
	.byte	$0E
	.byte	$0E
	.byte	$0E
	.byte	$0E
	.byte	$0E
	.byte	$0E
	.byte	$0E
	.byte	$0E
	.byte	$0E
	.byte	$0E
	.byte	$0E
	.byte	$0E
	.byte	$0E
	.byte	$0E
	.byte	$0E
	.byte	$0E
	.byte	$0E
	.byte	$0E
	.byte	$0E
	.byte	$0E
	.byte	$0E
	.byte	$0E
	.byte	$0E
	.byte	$0E
	.byte	$0E
	.byte	$0E
	.byte	$0E
	.byte	$0E
	.byte	$0E
	.byte	$0E
	.byte	$0E
	.byte	$0E
	.byte	$0E
	.byte	$0E
	.byte	$0E
	.byte	$0E
	.byte	$0E
	.byte	$0E
	.byte	$0E
	.byte	$0E
	.byte	$0E
	.byte	$0E
	.byte	$0E
	.byte	$0E
	.byte	$0E
	.byte	$0E
	.byte	$0E
	.byte	$0E
	.byte	$0E
	.byte	$0E
	.byte	$0E
	.byte	$0E
	.byte	$0E
	.byte	$0E
	.byte	$0E
	.byte	$0E
	.byte	$0E
	.byte	$0E
	.byte	$0E
	.byte	$0E
	.byte	$0E
	.byte	$0E
	.byte	$0E
	.byte	$0E
	.byte	$0E
	.byte	$0E
	.byte	$0E
	.byte	$0E
	.byte	$0E
	.byte	$0E
	.byte	$0E
	.byte	$0E
	.byte	$0E
	.byte	$0E
	.byte	$0E
	.byte	$0E
	.byte	$0E
	.byte	$0E
	.byte	$0E
	.byte	$0E
	.byte	$0E
	.byte	$0E
	.byte	$0E
	.byte	$0E
	.byte	$0E
	.byte	$0E
	.byte	$0E
	.byte	$0E
	.byte	$0E
	.byte	$0E
	.byte	$0E
	.byte	$0E
	.byte	$0E
	.byte	$0E
	.byte	$0E
	.byte	$0E
	.byte	$0E
	.byte	$0E
	.byte	$0E
	.byte	$0E
	.byte	$0E
	.byte	$0E
	.byte	$0E
_Level2_2:
	.byte	$14
	.byte	$14
	.byte	$14
	.byte	$14
	.byte	$14
	.byte	$14
	.byte	$14
	.byte	$14
	.byte	$14
	.byte	$14
	.byte	$14
	.byte	$14
	.byte	$14
	.byte	$14
	.byte	$14
	.byte	$14
	.byte	$14
	.byte	$14
	.byte	$14
	.byte	$14
	.byte	$14
	.byte	$10
	.byte	$14
	.byte	$14
	.byte	$14
	.byte	$14
	.byte	$14
	.byte	$14
	.byte	$10
	.byte	$14
	.byte	$14
	.byte	$14
	.byte	$14
	.byte	$14
	.byte	$14
	.byte	$14
	.byte	$14
	.byte	$10
	.byte	$14
	.byte	$14
	.byte	$14
	.byte	$14
	.byte	$14
	.byte	$14
	.byte	$10
	.byte	$14
	.byte	$14
	.byte	$14
	.byte	$14
	.byte	$14
	.byte	$14
	.byte	$14
	.byte	$14
	.byte	$11
	.byte	$14
	.byte	$14
	.byte	$14
	.byte	$14
	.byte	$14
	.byte	$14
	.byte	$11
	.byte	$14
	.byte	$14
	.byte	$14
	.byte	$14
	.byte	$14
	.byte	$14
	.byte	$14
	.byte	$14
	.byte	$11
	.byte	$14
	.byte	$14
	.byte	$14
	.byte	$14
	.byte	$14
	.byte	$14
	.byte	$11
	.byte	$14
	.byte	$14
	.byte	$14
	.byte	$14
	.byte	$14
	.byte	$14
	.byte	$14
	.byte	$14
	.byte	$14
	.byte	$14
	.byte	$14
	.byte	$14
	.byte	$14
	.byte	$14
	.byte	$14
	.byte	$14
	.byte	$14
	.byte	$14
	.byte	$14
	.byte	$14
	.byte	$14
	.byte	$14
	.byte	$14
	.byte	$14
	.byte	$14
	.byte	$14
	.byte	$14
	.byte	$14
	.byte	$14
	.byte	$14
	.byte	$14
	.byte	$14
	.byte	$14
	.byte	$14
	.byte	$14
	.byte	$0E
	.byte	$0E
	.byte	$0E
	.byte	$0E
	.byte	$0E
	.byte	$0E
	.byte	$0E
	.byte	$0E
	.byte	$0E
	.byte	$0E
	.byte	$0E
	.byte	$0E
	.byte	$0E
	.byte	$0E
	.byte	$0E
	.byte	$0E
	.byte	$0E
	.byte	$0E
	.byte	$0E
	.byte	$0E
	.byte	$0E
	.byte	$0E
	.byte	$0E
	.byte	$0E
	.byte	$0E
	.byte	$0E
	.byte	$0E
	.byte	$0E
	.byte	$0E
	.byte	$0E
	.byte	$0E
	.byte	$0E
	.byte	$0E
	.byte	$0E
	.byte	$0E
	.byte	$0E
	.byte	$0E
	.byte	$0E
	.byte	$0E
	.byte	$0E
	.byte	$0E
	.byte	$0E
	.byte	$0E
	.byte	$0E
	.byte	$0E
	.byte	$0E
	.byte	$0E
	.byte	$0E
	.byte	$0E
	.byte	$0E
	.byte	$0E
	.byte	$0E
	.byte	$0E
	.byte	$0E
	.byte	$0E
	.byte	$0E
	.byte	$0E
	.byte	$0E
	.byte	$0E
	.byte	$0E
	.byte	$0E
	.byte	$0E
	.byte	$0E
	.byte	$0E
	.byte	$0E
	.byte	$0E
	.byte	$0E
	.byte	$0E
	.byte	$0E
	.byte	$0E
	.byte	$0E
	.byte	$0E
	.byte	$0E
	.byte	$0E
	.byte	$0E
	.byte	$0E
	.byte	$0E
	.byte	$0E
	.byte	$0E
	.byte	$0E
	.byte	$0E
	.byte	$0E
	.byte	$0E
	.byte	$0E
	.byte	$0E
	.byte	$0E
	.byte	$0E
	.byte	$0E
	.byte	$0E
	.byte	$0E
	.byte	$0E
	.byte	$0E
	.byte	$0E
	.byte	$0E
	.byte	$0E
	.byte	$0E
	.byte	$0E
	.byte	$0E
	.byte	$0E
	.byte	$0E
	.byte	$0E
	.byte	$0E
	.byte	$0E
	.byte	$0E
	.byte	$0E
	.byte	$0E
	.byte	$0E
	.byte	$0E
	.byte	$0E
	.byte	$0E
	.byte	$0E
	.byte	$0E
	.byte	$0E
	.byte	$0E
	.byte	$0E
	.byte	$0E
	.byte	$0E
	.byte	$0E
	.byte	$0E
	.byte	$0E
	.byte	$0E
	.byte	$0E
	.byte	$0E
	.byte	$0E
	.byte	$0E
	.byte	$0E
	.byte	$0E
	.byte	$0E
_Level2_3:
	.byte	$14
	.byte	$14
	.byte	$14
	.byte	$14
	.byte	$14
	.byte	$14
	.byte	$14
	.byte	$14
	.byte	$14
	.byte	$14
	.byte	$14
	.byte	$14
	.byte	$14
	.byte	$14
	.byte	$14
	.byte	$14
	.byte	$14
	.byte	$14
	.byte	$14
	.byte	$10
	.byte	$14
	.byte	$14
	.byte	$14
	.byte	$14
	.byte	$14
	.byte	$14
	.byte	$10
	.byte	$14
	.byte	$14
	.byte	$14
	.byte	$14
	.byte	$14
	.byte	$14
	.byte	$14
	.byte	$14
	.byte	$10
	.byte	$14
	.byte	$14
	.byte	$14
	.byte	$14
	.byte	$14
	.byte	$14
	.byte	$10
	.byte	$14
	.byte	$14
	.byte	$14
	.byte	$14
	.byte	$14
	.byte	$14
	.byte	$14
	.byte	$14
	.byte	$11
	.byte	$14
	.byte	$14
	.byte	$14
	.byte	$14
	.byte	$14
	.byte	$14
	.byte	$11
	.byte	$14
	.byte	$14
	.byte	$14
	.byte	$14
	.byte	$14
	.byte	$14
	.byte	$14
	.byte	$14
	.byte	$11
	.byte	$14
	.byte	$14
	.byte	$14
	.byte	$14
	.byte	$14
	.byte	$14
	.byte	$11
	.byte	$14
	.byte	$14
	.byte	$14
	.byte	$14
	.byte	$14
	.byte	$14
	.byte	$14
	.byte	$14
	.byte	$14
	.byte	$14
	.byte	$14
	.byte	$14
	.byte	$14
	.byte	$14
	.byte	$14
	.byte	$14
	.byte	$14
	.byte	$14
	.byte	$14
	.byte	$14
	.byte	$14
	.byte	$14
	.byte	$14
	.byte	$14
	.byte	$14
	.byte	$14
	.byte	$14
	.byte	$14
	.byte	$14
	.byte	$14
	.byte	$14
	.byte	$14
	.byte	$14
	.byte	$14
	.byte	$14
	.byte	$14
	.byte	$14
	.byte	$0E
	.byte	$0E
	.byte	$0E
	.byte	$0E
	.byte	$0E
	.byte	$0E
	.byte	$0E
	.byte	$0E
	.byte	$0E
	.byte	$0E
	.byte	$0E
	.byte	$0E
	.byte	$0E
	.byte	$0E
	.byte	$0E
	.byte	$0E
	.byte	$0E
	.byte	$0E
	.byte	$0E
	.byte	$0E
	.byte	$0E
	.byte	$0E
	.byte	$0E
	.byte	$0E
	.byte	$0E
	.byte	$0E
	.byte	$0E
	.byte	$0E
	.byte	$0E
	.byte	$0E
	.byte	$0E
	.byte	$0E
	.byte	$0E
	.byte	$0E
	.byte	$0E
	.byte	$0E
	.byte	$0E
	.byte	$0E
	.byte	$0E
	.byte	$0E
	.byte	$0E
	.byte	$0E
	.byte	$0E
	.byte	$0E
	.byte	$0E
	.byte	$0E
	.byte	$0E
	.byte	$0E
	.byte	$0E
	.byte	$0E
	.byte	$0E
	.byte	$0E
	.byte	$0E
	.byte	$0E
	.byte	$0E
	.byte	$0E
	.byte	$0E
	.byte	$0E
	.byte	$0E
	.byte	$0E
	.byte	$0E
	.byte	$0E
	.byte	$0E
	.byte	$0E
	.byte	$0E
	.byte	$0E
	.byte	$0E
	.byte	$0E
	.byte	$0E
	.byte	$0E
	.byte	$0E
	.byte	$0E
	.byte	$0E
	.byte	$0E
	.byte	$0E
	.byte	$0E
	.byte	$0E
	.byte	$0E
	.byte	$0E
	.byte	$0E
	.byte	$0E
	.byte	$0E
	.byte	$0E
	.byte	$0E
	.byte	$0E
	.byte	$0E
	.byte	$0E
	.byte	$0E
	.byte	$0E
	.byte	$0E
	.byte	$0E
	.byte	$0E
	.byte	$0E
	.byte	$0E
	.byte	$0E
	.byte	$0E
	.byte	$0E
	.byte	$0E
	.byte	$0E
	.byte	$0E
	.byte	$0E
	.byte	$0E
	.byte	$0E
	.byte	$0E
	.byte	$0E
	.byte	$0E
	.byte	$0E
	.byte	$0E
	.byte	$0E
	.byte	$0E
	.byte	$0E
	.byte	$0E
	.byte	$0E
	.byte	$0E
	.byte	$0E
	.byte	$0E
	.byte	$0E
	.byte	$0E
	.byte	$0E
	.byte	$0E
	.byte	$0E
	.byte	$0E
	.byte	$0E
	.byte	$0E
	.byte	$0E
	.byte	$0E
	.byte	$0E
	.byte	$0E
_Level2_4:
	.byte	$14
	.byte	$14
	.byte	$14
	.byte	$14
	.byte	$14
	.byte	$14
	.byte	$14
	.byte	$14
	.byte	$14
	.byte	$14
	.byte	$14
	.byte	$14
	.byte	$14
	.byte	$14
	.byte	$14
	.byte	$14
	.byte	$14
	.byte	$14
	.byte	$14
	.byte	$14
	.byte	$14
	.byte	$14
	.byte	$14
	.byte	$14
	.byte	$14
	.byte	$14
	.byte	$09
	.byte	$09
	.byte	$09
	.byte	$09
	.byte	$09
	.byte	$09
	.byte	$15
	.byte	$15
	.byte	$15
	.byte	$15
	.byte	$14
	.byte	$14
	.byte	$14
	.byte	$14
	.byte	$14
	.byte	$14
	.byte	$09
	.byte	$09
	.byte	$09
	.byte	$09
	.byte	$09
	.byte	$09
	.byte	$15
	.byte	$15
	.byte	$15
	.byte	$15
	.byte	$14
	.byte	$14
	.byte	$14
	.byte	$14
	.byte	$14
	.byte	$14
	.byte	$19
	.byte	$19
	.byte	$19
	.byte	$19
	.byte	$19
	.byte	$19
	.byte	$15
	.byte	$15
	.byte	$15
	.byte	$15
	.byte	$14
	.byte	$14
	.byte	$14
	.byte	$14
	.byte	$14
	.byte	$14
	.byte	$0B
	.byte	$0B
	.byte	$0B
	.byte	$0B
	.byte	$0B
	.byte	$0B
	.byte	$15
	.byte	$15
	.byte	$15
	.byte	$15
	.byte	$14
	.byte	$14
	.byte	$14
	.byte	$14
	.byte	$14
	.byte	$14
	.byte	$14
	.byte	$14
	.byte	$14
	.byte	$14
	.byte	$14
	.byte	$14
	.byte	$15
	.byte	$15
	.byte	$15
	.byte	$15
	.byte	$14
	.byte	$14
	.byte	$14
	.byte	$14
	.byte	$14
	.byte	$14
	.byte	$14
	.byte	$14
	.byte	$14
	.byte	$14
	.byte	$14
	.byte	$14
	.byte	$0E
	.byte	$0E
	.byte	$0E
	.byte	$0E
	.byte	$0E
	.byte	$0E
	.byte	$0E
	.byte	$0E
	.byte	$0E
	.byte	$0E
	.byte	$0E
	.byte	$0E
	.byte	$0E
	.byte	$0E
	.byte	$0E
	.byte	$0E
	.byte	$0E
	.byte	$0E
	.byte	$0E
	.byte	$0E
	.byte	$0E
	.byte	$0E
	.byte	$0E
	.byte	$0E
	.byte	$0E
	.byte	$0E
	.byte	$0E
	.byte	$0E
	.byte	$0E
	.byte	$0E
	.byte	$0E
	.byte	$0E
	.byte	$0E
	.byte	$0E
	.byte	$0E
	.byte	$0E
	.byte	$0E
	.byte	$0E
	.byte	$0E
	.byte	$0E
	.byte	$0E
	.byte	$0E
	.byte	$0E
	.byte	$0E
	.byte	$0E
	.byte	$0E
	.byte	$0E
	.byte	$0E
	.byte	$0E
	.byte	$0E
	.byte	$0E
	.byte	$0E
	.byte	$0E
	.byte	$0E
	.byte	$0E
	.byte	$0E
	.byte	$0E
	.byte	$0E
	.byte	$0E
	.byte	$0E
	.byte	$0E
	.byte	$0E
	.byte	$0E
	.byte	$0E
	.byte	$0E
	.byte	$0E
	.byte	$0E
	.byte	$0E
	.byte	$0E
	.byte	$0E
	.byte	$0E
	.byte	$0E
	.byte	$0E
	.byte	$0E
	.byte	$0E
	.byte	$0E
	.byte	$0E
	.byte	$0E
	.byte	$0E
	.byte	$0E
	.byte	$0E
	.byte	$0E
	.byte	$0E
	.byte	$0E
	.byte	$0E
	.byte	$0E
	.byte	$0E
	.byte	$0E
	.byte	$0E
	.byte	$0E
	.byte	$0E
	.byte	$0E
	.byte	$0E
	.byte	$0E
	.byte	$0E
	.byte	$0E
	.byte	$0E
	.byte	$0E
	.byte	$0E
	.byte	$0E
	.byte	$0E
	.byte	$0E
	.byte	$0E
	.byte	$0E
	.byte	$0E
	.byte	$0E
	.byte	$0E
	.byte	$0E
	.byte	$0E
	.byte	$0E
	.byte	$0E
	.byte	$0E
	.byte	$0E
	.byte	$0E
	.byte	$0E
	.byte	$0E
	.byte	$0E
	.byte	$0E
	.byte	$0E
	.byte	$0E
	.byte	$0E
	.byte	$0E
	.byte	$0E
	.byte	$0E
	.byte	$0E
	.byte	$0E
	.byte	$0E
	.byte	$0E
_Level2_5:
	.byte	$14
	.byte	$14
	.byte	$14
	.byte	$14
	.byte	$14
	.byte	$14
	.byte	$14
	.byte	$14
	.byte	$14
	.byte	$14
	.byte	$14
	.byte	$14
	.byte	$14
	.byte	$14
	.byte	$14
	.byte	$14
	.byte	$09
	.byte	$09
	.byte	$09
	.byte	$12
	.byte	$12
	.byte	$09
	.byte	$09
	.byte	$09
	.byte	$09
	.byte	$09
	.byte	$09
	.byte	$09
	.byte	$09
	.byte	$09
	.byte	$09
	.byte	$09
	.byte	$09
	.byte	$09
	.byte	$09
	.byte	$12
	.byte	$09
	.byte	$09
	.byte	$09
	.byte	$09
	.byte	$09
	.byte	$09
	.byte	$09
	.byte	$09
	.byte	$09
	.byte	$09
	.byte	$09
	.byte	$09
	.byte	$19
	.byte	$12
	.byte	$12
	.byte	$12
	.byte	$12
	.byte	$12
	.byte	$19
	.byte	$19
	.byte	$19
	.byte	$19
	.byte	$19
	.byte	$19
	.byte	$19
	.byte	$19
	.byte	$19
	.byte	$19
	.byte	$0B
	.byte	$0B
	.byte	$12
	.byte	$12
	.byte	$12
	.byte	$0B
	.byte	$0B
	.byte	$0B
	.byte	$0B
	.byte	$0B
	.byte	$0B
	.byte	$0B
	.byte	$0B
	.byte	$0B
	.byte	$0B
	.byte	$0B
	.byte	$14
	.byte	$14
	.byte	$14
	.byte	$14
	.byte	$14
	.byte	$14
	.byte	$14
	.byte	$14
	.byte	$14
	.byte	$14
	.byte	$14
	.byte	$14
	.byte	$14
	.byte	$14
	.byte	$14
	.byte	$14
	.byte	$14
	.byte	$14
	.byte	$14
	.byte	$14
	.byte	$14
	.byte	$14
	.byte	$14
	.byte	$14
	.byte	$14
	.byte	$14
	.byte	$14
	.byte	$14
	.byte	$14
	.byte	$14
	.byte	$14
	.byte	$14
	.byte	$0E
	.byte	$0E
	.byte	$0E
	.byte	$0E
	.byte	$0E
	.byte	$0E
	.byte	$0E
	.byte	$0E
	.byte	$0E
	.byte	$0E
	.byte	$0E
	.byte	$0E
	.byte	$0E
	.byte	$0E
	.byte	$0E
	.byte	$0E
	.byte	$0E
	.byte	$0E
	.byte	$0E
	.byte	$0E
	.byte	$0E
	.byte	$0E
	.byte	$0E
	.byte	$0E
	.byte	$0E
	.byte	$0E
	.byte	$0E
	.byte	$0E
	.byte	$0E
	.byte	$0E
	.byte	$0E
	.byte	$0E
	.byte	$0E
	.byte	$0E
	.byte	$0E
	.byte	$0E
	.byte	$0E
	.byte	$0E
	.byte	$0E
	.byte	$0E
	.byte	$0E
	.byte	$0E
	.byte	$0E
	.byte	$0E
	.byte	$0E
	.byte	$0E
	.byte	$0E
	.byte	$0E
	.byte	$0E
	.byte	$0E
	.byte	$0E
	.byte	$0E
	.byte	$0E
	.byte	$0E
	.byte	$0E
	.byte	$0E
	.byte	$0E
	.byte	$0E
	.byte	$0E
	.byte	$0E
	.byte	$0E
	.byte	$0E
	.byte	$0E
	.byte	$0E
	.byte	$0E
	.byte	$0E
	.byte	$0E
	.byte	$0E
	.byte	$0E
	.byte	$0E
	.byte	$0E
	.byte	$0E
	.byte	$0E
	.byte	$0E
	.byte	$0E
	.byte	$0E
	.byte	$0E
	.byte	$0E
	.byte	$0E
	.byte	$0E
	.byte	$0E
	.byte	$0E
	.byte	$0E
	.byte	$0E
	.byte	$0E
	.byte	$0E
	.byte	$0E
	.byte	$0E
	.byte	$0E
	.byte	$0E
	.byte	$0E
	.byte	$0E
	.byte	$0E
	.byte	$0E
	.byte	$0E
	.byte	$0E
	.byte	$0E
	.byte	$0E
	.byte	$0E
	.byte	$0E
	.byte	$0E
	.byte	$0E
	.byte	$0E
	.byte	$0E
	.byte	$0E
	.byte	$0E
	.byte	$0E
	.byte	$0E
	.byte	$0E
	.byte	$0E
	.byte	$0E
	.byte	$0E
	.byte	$0E
	.byte	$0E
	.byte	$0E
	.byte	$0E
	.byte	$0E
	.byte	$0E
	.byte	$0E
	.byte	$0E
	.byte	$0E
	.byte	$0E
	.byte	$0E
	.byte	$0E
	.byte	$0E
	.byte	$0E
	.byte	$0E
	.byte	$0E
_Level2_6:
	.byte	$14
	.byte	$14
	.byte	$14
	.byte	$14
	.byte	$14
	.byte	$14
	.byte	$14
	.byte	$14
	.byte	$14
	.byte	$14
	.byte	$14
	.byte	$14
	.byte	$14
	.byte	$14
	.byte	$14
	.byte	$14
	.byte	$09
	.byte	$09
	.byte	$09
	.byte	$09
	.byte	$09
	.byte	$09
	.byte	$09
	.byte	$09
	.byte	$09
	.byte	$06
	.byte	$06
	.byte	$06
	.byte	$06
	.byte	$06
	.byte	$09
	.byte	$09
	.byte	$09
	.byte	$09
	.byte	$09
	.byte	$09
	.byte	$09
	.byte	$09
	.byte	$09
	.byte	$09
	.byte	$09
	.byte	$09
	.byte	$0E
	.byte	$0E
	.byte	$0E
	.byte	$09
	.byte	$09
	.byte	$09
	.byte	$19
	.byte	$19
	.byte	$19
	.byte	$19
	.byte	$19
	.byte	$19
	.byte	$19
	.byte	$19
	.byte	$19
	.byte	$19
	.byte	$0E
	.byte	$12
	.byte	$0E
	.byte	$19
	.byte	$19
	.byte	$19
	.byte	$0B
	.byte	$0B
	.byte	$0B
	.byte	$0B
	.byte	$0B
	.byte	$0B
	.byte	$0B
	.byte	$0B
	.byte	$0B
	.byte	$0B
	.byte	$0B
	.byte	$0B
	.byte	$0B
	.byte	$0B
	.byte	$0B
	.byte	$0B
	.byte	$14
	.byte	$14
	.byte	$14
	.byte	$14
	.byte	$14
	.byte	$14
	.byte	$14
	.byte	$14
	.byte	$14
	.byte	$14
	.byte	$14
	.byte	$14
	.byte	$14
	.byte	$14
	.byte	$14
	.byte	$14
	.byte	$14
	.byte	$14
	.byte	$14
	.byte	$14
	.byte	$14
	.byte	$14
	.byte	$14
	.byte	$14
	.byte	$14
	.byte	$14
	.byte	$14
	.byte	$14
	.byte	$14
	.byte	$14
	.byte	$14
	.byte	$14
	.byte	$0E
	.byte	$0E
	.byte	$0E
	.byte	$0E
	.byte	$0E
	.byte	$0E
	.byte	$0E
	.byte	$0E
	.byte	$0E
	.byte	$0E
	.byte	$0E
	.byte	$0E
	.byte	$0E
	.byte	$0E
	.byte	$0E
	.byte	$0E
	.byte	$0E
	.byte	$0E
	.byte	$0E
	.byte	$0E
	.byte	$0E
	.byte	$0E
	.byte	$0E
	.byte	$0E
	.byte	$0E
	.byte	$0E
	.byte	$0E
	.byte	$0E
	.byte	$0E
	.byte	$0E
	.byte	$0E
	.byte	$0E
	.byte	$0E
	.byte	$0E
	.byte	$0E
	.byte	$0E
	.byte	$0E
	.byte	$0E
	.byte	$0E
	.byte	$0E
	.byte	$0E
	.byte	$0E
	.byte	$0E
	.byte	$0E
	.byte	$0E
	.byte	$0E
	.byte	$0E
	.byte	$0E
	.byte	$0E
	.byte	$0E
	.byte	$0E
	.byte	$0E
	.byte	$0E
	.byte	$0E
	.byte	$0E
	.byte	$0E
	.byte	$0E
	.byte	$0E
	.byte	$0E
	.byte	$0E
	.byte	$0E
	.byte	$0E
	.byte	$0E
	.byte	$0E
	.byte	$0E
	.byte	$0E
	.byte	$0E
	.byte	$0E
	.byte	$0E
	.byte	$0E
	.byte	$0E
	.byte	$0E
	.byte	$0E
	.byte	$0E
	.byte	$0E
	.byte	$0E
	.byte	$0E
	.byte	$0E
	.byte	$0E
	.byte	$0E
	.byte	$0E
	.byte	$0E
	.byte	$0E
	.byte	$0E
	.byte	$0E
	.byte	$0E
	.byte	$0E
	.byte	$0E
	.byte	$0E
	.byte	$0E
	.byte	$0E
	.byte	$0E
	.byte	$0E
	.byte	$0E
	.byte	$0E
	.byte	$0E
	.byte	$0E
	.byte	$0E
	.byte	$0E
	.byte	$0E
	.byte	$0E
	.byte	$0E
	.byte	$0E
	.byte	$0E
	.byte	$0E
	.byte	$0E
	.byte	$0E
	.byte	$0E
	.byte	$0E
	.byte	$0E
	.byte	$0E
	.byte	$0E
	.byte	$0E
	.byte	$0E
	.byte	$0E
	.byte	$0E
	.byte	$0E
	.byte	$0E
	.byte	$0E
	.byte	$0E
	.byte	$0E
	.byte	$0E
	.byte	$0E
	.byte	$0E
	.byte	$0E
	.byte	$0E
	.byte	$0E
	.byte	$0E
_Level2_7:
	.byte	$14
	.byte	$14
	.byte	$14
	.byte	$14
	.byte	$14
	.byte	$14
	.byte	$14
	.byte	$14
	.byte	$14
	.byte	$14
	.byte	$14
	.byte	$14
	.byte	$14
	.byte	$14
	.byte	$14
	.byte	$05
	.byte	$09
	.byte	$14
	.byte	$14
	.byte	$14
	.byte	$14
	.byte	$14
	.byte	$14
	.byte	$14
	.byte	$10
	.byte	$14
	.byte	$14
	.byte	$14
	.byte	$14
	.byte	$14
	.byte	$14
	.byte	$05
	.byte	$09
	.byte	$14
	.byte	$14
	.byte	$14
	.byte	$14
	.byte	$14
	.byte	$14
	.byte	$14
	.byte	$10
	.byte	$14
	.byte	$14
	.byte	$14
	.byte	$14
	.byte	$14
	.byte	$14
	.byte	$05
	.byte	$19
	.byte	$14
	.byte	$14
	.byte	$14
	.byte	$14
	.byte	$14
	.byte	$14
	.byte	$14
	.byte	$11
	.byte	$14
	.byte	$14
	.byte	$14
	.byte	$14
	.byte	$14
	.byte	$14
	.byte	$05
	.byte	$0B
	.byte	$14
	.byte	$14
	.byte	$14
	.byte	$14
	.byte	$14
	.byte	$14
	.byte	$14
	.byte	$11
	.byte	$14
	.byte	$14
	.byte	$14
	.byte	$14
	.byte	$14
	.byte	$14
	.byte	$05
	.byte	$14
	.byte	$14
	.byte	$14
	.byte	$14
	.byte	$14
	.byte	$14
	.byte	$14
	.byte	$14
	.byte	$14
	.byte	$14
	.byte	$14
	.byte	$14
	.byte	$14
	.byte	$14
	.byte	$14
	.byte	$05
	.byte	$14
	.byte	$14
	.byte	$14
	.byte	$14
	.byte	$14
	.byte	$14
	.byte	$14
	.byte	$14
	.byte	$14
	.byte	$14
	.byte	$14
	.byte	$14
	.byte	$14
	.byte	$14
	.byte	$14
	.byte	$05
	.byte	$0E
	.byte	$0E
	.byte	$0E
	.byte	$0E
	.byte	$0E
	.byte	$0E
	.byte	$0E
	.byte	$0E
	.byte	$0E
	.byte	$0E
	.byte	$0E
	.byte	$0E
	.byte	$0E
	.byte	$0E
	.byte	$0E
	.byte	$0E
	.byte	$0E
	.byte	$0E
	.byte	$0E
	.byte	$0E
	.byte	$0E
	.byte	$0E
	.byte	$0E
	.byte	$0E
	.byte	$0E
	.byte	$0E
	.byte	$0E
	.byte	$0E
	.byte	$0E
	.byte	$0E
	.byte	$0E
	.byte	$0E
	.byte	$0E
	.byte	$0E
	.byte	$0E
	.byte	$0E
	.byte	$0E
	.byte	$0E
	.byte	$0E
	.byte	$0E
	.byte	$0E
	.byte	$0E
	.byte	$0E
	.byte	$0E
	.byte	$0E
	.byte	$0E
	.byte	$0E
	.byte	$0E
	.byte	$0E
	.byte	$0E
	.byte	$0E
	.byte	$0E
	.byte	$0E
	.byte	$0E
	.byte	$0E
	.byte	$0E
	.byte	$0E
	.byte	$0E
	.byte	$0E
	.byte	$0E
	.byte	$0E
	.byte	$0E
	.byte	$0E
	.byte	$0E
	.byte	$0E
	.byte	$0E
	.byte	$0E
	.byte	$0E
	.byte	$0E
	.byte	$0E
	.byte	$0E
	.byte	$0E
	.byte	$0E
	.byte	$0E
	.byte	$0E
	.byte	$0E
	.byte	$0E
	.byte	$0E
	.byte	$0E
	.byte	$0E
	.byte	$0E
	.byte	$0E
	.byte	$0E
	.byte	$0E
	.byte	$0E
	.byte	$0E
	.byte	$0E
	.byte	$0E
	.byte	$0E
	.byte	$0E
	.byte	$0E
	.byte	$0E
	.byte	$0E
	.byte	$0E
	.byte	$0E
	.byte	$0E
	.byte	$0E
	.byte	$0E
	.byte	$0E
	.byte	$0E
	.byte	$0E
	.byte	$0E
	.byte	$0E
	.byte	$0E
	.byte	$0E
	.byte	$0E
	.byte	$0E
	.byte	$0E
	.byte	$0E
	.byte	$0E
	.byte	$0E
	.byte	$0E
	.byte	$0E
	.byte	$0E
	.byte	$0E
	.byte	$0E
	.byte	$0E
	.byte	$0E
	.byte	$0E
	.byte	$0E
	.byte	$0E
	.byte	$0E
	.byte	$0E
	.byte	$0E
	.byte	$0E
	.byte	$0E
	.byte	$0E
	.byte	$0E
_Level2_8:
	.byte	$05
	.byte	$05
	.byte	$05
	.byte	$05
	.byte	$05
	.byte	$05
	.byte	$05
	.byte	$05
	.byte	$05
	.byte	$05
	.byte	$05
	.byte	$05
	.byte	$05
	.byte	$05
	.byte	$05
	.byte	$05
	.byte	$05
	.byte	$05
	.byte	$05
	.byte	$05
	.byte	$05
	.byte	$05
	.byte	$05
	.byte	$05
	.byte	$05
	.byte	$05
	.byte	$05
	.byte	$05
	.byte	$05
	.byte	$05
	.byte	$05
	.byte	$05
	.byte	$05
	.byte	$05
	.byte	$05
	.byte	$05
	.byte	$05
	.byte	$05
	.byte	$05
	.byte	$05
	.byte	$05
	.byte	$05
	.byte	$05
	.byte	$05
	.byte	$05
	.byte	$05
	.byte	$05
	.byte	$05
	.byte	$05
	.byte	$05
	.byte	$05
	.byte	$05
	.byte	$05
	.byte	$05
	.byte	$05
	.byte	$05
	.byte	$05
	.byte	$05
	.byte	$05
	.byte	$05
	.byte	$05
	.byte	$05
	.byte	$05
	.byte	$05
	.byte	$05
	.byte	$05
	.byte	$05
	.byte	$05
	.byte	$05
	.byte	$05
	.byte	$05
	.byte	$05
	.byte	$05
	.byte	$05
	.byte	$05
	.byte	$05
	.byte	$05
	.byte	$05
	.byte	$05
	.byte	$05
	.byte	$05
	.byte	$05
	.byte	$05
	.byte	$05
	.byte	$05
	.byte	$05
	.byte	$05
	.byte	$05
	.byte	$05
	.byte	$05
	.byte	$05
	.byte	$05
	.byte	$05
	.byte	$05
	.byte	$05
	.byte	$05
	.byte	$05
	.byte	$05
	.byte	$05
	.byte	$05
	.byte	$05
	.byte	$05
	.byte	$05
	.byte	$05
	.byte	$05
	.byte	$05
	.byte	$05
	.byte	$05
	.byte	$05
	.byte	$05
	.byte	$05
	.byte	$05
	.byte	$0E
	.byte	$0E
	.byte	$0E
	.byte	$0E
	.byte	$0E
	.byte	$0E
	.byte	$0E
	.byte	$0E
	.byte	$0E
	.byte	$0E
	.byte	$0E
	.byte	$0E
	.byte	$0E
	.byte	$0E
	.byte	$0E
	.byte	$0E
	.byte	$0E
	.byte	$0E
	.byte	$0E
	.byte	$0E
	.byte	$0E
	.byte	$0E
	.byte	$0E
	.byte	$0E
	.byte	$0E
	.byte	$0E
	.byte	$0E
	.byte	$0E
	.byte	$0E
	.byte	$0E
	.byte	$0E
	.byte	$0E
	.byte	$0E
	.byte	$0E
	.byte	$0E
	.byte	$0E
	.byte	$0E
	.byte	$0E
	.byte	$0E
	.byte	$0E
	.byte	$0E
	.byte	$0E
	.byte	$0E
	.byte	$0E
	.byte	$0E
	.byte	$0E
	.byte	$0E
	.byte	$0E
	.byte	$0E
	.byte	$0E
	.byte	$0E
	.byte	$0E
	.byte	$0E
	.byte	$0E
	.byte	$0E
	.byte	$0E
	.byte	$0E
	.byte	$0E
	.byte	$0E
	.byte	$0E
	.byte	$0E
	.byte	$0E
	.byte	$0E
	.byte	$0E
	.byte	$0E
	.byte	$0E
	.byte	$0E
	.byte	$0E
	.byte	$0E
	.byte	$0E
	.byte	$0E
	.byte	$0E
	.byte	$0E
	.byte	$0E
	.byte	$0E
	.byte	$0E
	.byte	$0E
	.byte	$0E
	.byte	$0E
	.byte	$0E
	.byte	$0E
	.byte	$0E
	.byte	$0E
	.byte	$0E
	.byte	$0E
	.byte	$0E
	.byte	$0E
	.byte	$0E
	.byte	$0E
	.byte	$0E
	.byte	$0E
	.byte	$0E
	.byte	$0E
	.byte	$0E
	.byte	$0E
	.byte	$0E
	.byte	$0E
	.byte	$0E
	.byte	$0E
	.byte	$0E
	.byte	$0E
	.byte	$0E
	.byte	$0E
	.byte	$0E
	.byte	$0E
	.byte	$0E
	.byte	$0E
	.byte	$0E
	.byte	$0E
	.byte	$0E
	.byte	$0E
	.byte	$0E
	.byte	$0E
	.byte	$0E
	.byte	$0E
	.byte	$0E
	.byte	$0E
	.byte	$0E
	.byte	$0E
	.byte	$0E
	.byte	$0E
	.byte	$0E
	.byte	$0E
	.byte	$0E
	.byte	$0E
	.byte	$0E
	.byte	$0E
	.byte	$0E
_Level2_9:
	.byte	$05
	.byte	$05
	.byte	$05
	.byte	$05
	.byte	$05
	.byte	$05
	.byte	$05
	.byte	$05
	.byte	$05
	.byte	$05
	.byte	$05
	.byte	$05
	.byte	$05
	.byte	$05
	.byte	$05
	.byte	$05
	.byte	$05
	.byte	$05
	.byte	$05
	.byte	$05
	.byte	$05
	.byte	$05
	.byte	$05
	.byte	$05
	.byte	$05
	.byte	$05
	.byte	$05
	.byte	$05
	.byte	$05
	.byte	$05
	.byte	$05
	.byte	$05
	.byte	$05
	.byte	$05
	.byte	$05
	.byte	$05
	.byte	$05
	.byte	$05
	.byte	$05
	.byte	$05
	.byte	$05
	.byte	$05
	.byte	$05
	.byte	$05
	.byte	$05
	.byte	$05
	.byte	$05
	.byte	$05
	.byte	$05
	.byte	$05
	.byte	$05
	.byte	$05
	.byte	$05
	.byte	$05
	.byte	$05
	.byte	$05
	.byte	$05
	.byte	$05
	.byte	$05
	.byte	$05
	.byte	$05
	.byte	$05
	.byte	$05
	.byte	$05
	.byte	$05
	.byte	$05
	.byte	$05
	.byte	$05
	.byte	$05
	.byte	$05
	.byte	$05
	.byte	$05
	.byte	$05
	.byte	$05
	.byte	$05
	.byte	$05
	.byte	$05
	.byte	$05
	.byte	$05
	.byte	$05
	.byte	$05
	.byte	$05
	.byte	$05
	.byte	$05
	.byte	$05
	.byte	$05
	.byte	$05
	.byte	$05
	.byte	$05
	.byte	$05
	.byte	$05
	.byte	$05
	.byte	$05
	.byte	$05
	.byte	$05
	.byte	$05
	.byte	$05
	.byte	$05
	.byte	$05
	.byte	$05
	.byte	$05
	.byte	$05
	.byte	$05
	.byte	$05
	.byte	$05
	.byte	$05
	.byte	$05
	.byte	$05
	.byte	$05
	.byte	$05
	.byte	$05
	.byte	$05
	.byte	$0E
	.byte	$0E
	.byte	$0E
	.byte	$0E
	.byte	$0E
	.byte	$0E
	.byte	$0E
	.byte	$0E
	.byte	$0E
	.byte	$0E
	.byte	$0E
	.byte	$0E
	.byte	$0E
	.byte	$0E
	.byte	$0E
	.byte	$0E
	.byte	$0E
	.byte	$0E
	.byte	$0E
	.byte	$0E
	.byte	$0E
	.byte	$0E
	.byte	$0E
	.byte	$0E
	.byte	$0E
	.byte	$0E
	.byte	$0E
	.byte	$0E
	.byte	$0E
	.byte	$0E
	.byte	$0E
	.byte	$0E
	.byte	$0E
	.byte	$0E
	.byte	$0E
	.byte	$0E
	.byte	$0E
	.byte	$0E
	.byte	$0E
	.byte	$0E
	.byte	$0E
	.byte	$0E
	.byte	$0E
	.byte	$0E
	.byte	$0E
	.byte	$0E
	.byte	$0E
	.byte	$0E
	.byte	$0E
	.byte	$0E
	.byte	$0E
	.byte	$0E
	.byte	$0E
	.byte	$0E
	.byte	$0E
	.byte	$0E
	.byte	$0E
	.byte	$0E
	.byte	$0E
	.byte	$0E
	.byte	$0E
	.byte	$0E
	.byte	$0E
	.byte	$0E
	.byte	$0E
	.byte	$0E
	.byte	$0E
	.byte	$0E
	.byte	$0E
	.byte	$0E
	.byte	$0E
	.byte	$0E
	.byte	$0E
	.byte	$0E
	.byte	$0E
	.byte	$0E
	.byte	$0E
	.byte	$0E
	.byte	$0E
	.byte	$0E
	.byte	$0E
	.byte	$0E
	.byte	$0E
	.byte	$0E
	.byte	$0E
	.byte	$0E
	.byte	$0E
	.byte	$0E
	.byte	$0E
	.byte	$0E
	.byte	$0E
	.byte	$0E
	.byte	$0E
	.byte	$0E
	.byte	$0E
	.byte	$0E
	.byte	$0E
	.byte	$0E
	.byte	$0E
	.byte	$0E
	.byte	$0E
	.byte	$0E
	.byte	$0E
	.byte	$0E
	.byte	$0E
	.byte	$0E
	.byte	$0E
	.byte	$0E
	.byte	$0E
	.byte	$0E
	.byte	$0E
	.byte	$0E
	.byte	$0E
	.byte	$0E
	.byte	$0E
	.byte	$0E
	.byte	$0E
	.byte	$0E
	.byte	$0E
	.byte	$0E
	.byte	$0E
	.byte	$0E
	.byte	$0E
	.byte	$0E
	.byte	$0E
	.byte	$0E
	.byte	$0E
	.byte	$0E
_Level2_list:
	.addr	_Level2_0
	.addr	_Level2_1
	.addr	_Level2_2
	.addr	_Level2_3
	.addr	_Level2_4
	.addr	_Level2_5
	.addr	_Level2_6
	.addr	_Level2_7
	.addr	_Level2_8
	.addr	_Level2_9
_Level3_0:
	.byte	$01
	.byte	$05
	.byte	$05
	.byte	$05
	.byte	$05
	.byte	$05
	.byte	$05
	.byte	$10
	.byte	$05
	.byte	$05
	.byte	$05
	.byte	$05
	.byte	$05
	.byte	$05
	.byte	$10
	.byte	$05
	.byte	$01
	.byte	$05
	.byte	$05
	.byte	$05
	.byte	$16
	.byte	$05
	.byte	$05
	.byte	$10
	.byte	$05
	.byte	$05
	.byte	$15
	.byte	$05
	.byte	$05
	.byte	$05
	.byte	$10
	.byte	$05
	.byte	$01
	.byte	$05
	.byte	$05
	.byte	$05
	.byte	$05
	.byte	$05
	.byte	$05
	.byte	$11
	.byte	$05
	.byte	$05
	.byte	$16
	.byte	$05
	.byte	$05
	.byte	$05
	.byte	$11
	.byte	$05
	.byte	$01
	.byte	$05
	.byte	$05
	.byte	$05
	.byte	$05
	.byte	$05
	.byte	$05
	.byte	$11
	.byte	$05
	.byte	$05
	.byte	$05
	.byte	$05
	.byte	$05
	.byte	$05
	.byte	$11
	.byte	$05
	.byte	$01
	.byte	$05
	.byte	$05
	.byte	$05
	.byte	$05
	.byte	$05
	.byte	$05
	.byte	$05
	.byte	$05
	.byte	$05
	.byte	$05
	.byte	$05
	.byte	$05
	.byte	$05
	.byte	$05
	.byte	$05
	.byte	$01
	.byte	$05
	.byte	$05
	.byte	$05
	.byte	$05
	.byte	$05
	.byte	$05
	.byte	$05
	.byte	$05
	.byte	$05
	.byte	$05
	.byte	$05
	.byte	$05
	.byte	$05
	.byte	$05
	.byte	$05
	.byte	$01
	.byte	$01
	.byte	$01
	.byte	$01
	.byte	$01
	.byte	$01
	.byte	$01
	.byte	$01
	.byte	$01
	.byte	$01
	.byte	$01
	.byte	$01
	.byte	$01
	.byte	$01
	.byte	$01
	.byte	$01
	.byte	$01
	.byte	$06
	.byte	$06
	.byte	$06
	.byte	$06
	.byte	$06
	.byte	$06
	.byte	$06
	.byte	$06
	.byte	$06
	.byte	$06
	.byte	$06
	.byte	$06
	.byte	$06
	.byte	$06
	.byte	$06
	.byte	$01
	.byte	$06
	.byte	$06
	.byte	$06
	.byte	$06
	.byte	$06
	.byte	$06
	.byte	$06
	.byte	$06
	.byte	$06
	.byte	$06
	.byte	$06
	.byte	$06
	.byte	$06
	.byte	$06
	.byte	$06
	.byte	$01
	.byte	$06
	.byte	$06
	.byte	$06
	.byte	$06
	.byte	$06
	.byte	$06
	.byte	$06
	.byte	$06
	.byte	$06
	.byte	$06
	.byte	$06
	.byte	$06
	.byte	$06
	.byte	$06
	.byte	$06
	.byte	$01
	.byte	$06
	.byte	$06
	.byte	$06
	.byte	$06
	.byte	$06
	.byte	$06
	.byte	$06
	.byte	$06
	.byte	$06
	.byte	$06
	.byte	$06
	.byte	$06
	.byte	$06
	.byte	$06
	.byte	$06
	.byte	$01
	.byte	$06
	.byte	$06
	.byte	$06
	.byte	$06
	.byte	$06
	.byte	$06
	.byte	$06
	.byte	$06
	.byte	$06
	.byte	$06
	.byte	$06
	.byte	$06
	.byte	$06
	.byte	$06
	.byte	$06
	.byte	$01
	.byte	$06
	.byte	$06
	.byte	$06
	.byte	$06
	.byte	$06
	.byte	$06
	.byte	$06
	.byte	$06
	.byte	$06
	.byte	$06
	.byte	$06
	.byte	$06
	.byte	$06
	.byte	$06
	.byte	$06
	.byte	$01
	.byte	$06
	.byte	$06
	.byte	$06
	.byte	$06
	.byte	$06
	.byte	$06
	.byte	$06
	.byte	$06
	.byte	$06
	.byte	$06
	.byte	$06
	.byte	$06
	.byte	$06
	.byte	$06
	.byte	$06
	.byte	$01
	.byte	$06
	.byte	$06
	.byte	$06
	.byte	$06
	.byte	$06
	.byte	$06
	.byte	$06
	.byte	$06
	.byte	$06
	.byte	$06
	.byte	$06
	.byte	$06
	.byte	$06
	.byte	$06
	.byte	$06
_Level3_1:
	.byte	$05
	.byte	$15
	.byte	$05
	.byte	$05
	.byte	$05
	.byte	$10
	.byte	$05
	.byte	$05
	.byte	$05
	.byte	$05
	.byte	$05
	.byte	$05
	.byte	$10
	.byte	$05
	.byte	$05
	.byte	$05
	.byte	$05
	.byte	$15
	.byte	$05
	.byte	$15
	.byte	$05
	.byte	$10
	.byte	$05
	.byte	$16
	.byte	$05
	.byte	$15
	.byte	$05
	.byte	$05
	.byte	$10
	.byte	$05
	.byte	$15
	.byte	$05
	.byte	$16
	.byte	$05
	.byte	$05
	.byte	$05
	.byte	$05
	.byte	$11
	.byte	$05
	.byte	$05
	.byte	$05
	.byte	$15
	.byte	$05
	.byte	$05
	.byte	$11
	.byte	$05
	.byte	$05
	.byte	$05
	.byte	$05
	.byte	$05
	.byte	$15
	.byte	$05
	.byte	$05
	.byte	$11
	.byte	$05
	.byte	$05
	.byte	$05
	.byte	$05
	.byte	$05
	.byte	$05
	.byte	$11
	.byte	$05
	.byte	$05
	.byte	$05
	.byte	$05
	.byte	$05
	.byte	$05
	.byte	$05
	.byte	$05
	.byte	$05
	.byte	$05
	.byte	$05
	.byte	$16
	.byte	$05
	.byte	$05
	.byte	$05
	.byte	$05
	.byte	$05
	.byte	$05
	.byte	$05
	.byte	$05
	.byte	$05
	.byte	$05
	.byte	$05
	.byte	$05
	.byte	$05
	.byte	$05
	.byte	$05
	.byte	$05
	.byte	$05
	.byte	$05
	.byte	$05
	.byte	$05
	.byte	$05
	.byte	$05
	.byte	$05
	.byte	$01
	.byte	$01
	.byte	$01
	.byte	$01
	.byte	$01
	.byte	$01
	.byte	$01
	.byte	$01
	.byte	$01
	.byte	$01
	.byte	$01
	.byte	$01
	.byte	$01
	.byte	$01
	.byte	$01
	.byte	$01
	.byte	$06
	.byte	$06
	.byte	$06
	.byte	$06
	.byte	$06
	.byte	$06
	.byte	$06
	.byte	$06
	.byte	$06
	.byte	$06
	.byte	$06
	.byte	$06
	.byte	$06
	.byte	$06
	.byte	$06
	.byte	$06
	.byte	$06
	.byte	$06
	.byte	$06
	.byte	$06
	.byte	$06
	.byte	$06
	.byte	$06
	.byte	$06
	.byte	$06
	.byte	$06
	.byte	$06
	.byte	$06
	.byte	$06
	.byte	$06
	.byte	$06
	.byte	$06
	.byte	$06
	.byte	$06
	.byte	$06
	.byte	$06
	.byte	$06
	.byte	$06
	.byte	$06
	.byte	$06
	.byte	$06
	.byte	$06
	.byte	$06
	.byte	$06
	.byte	$06
	.byte	$06
	.byte	$06
	.byte	$06
	.byte	$06
	.byte	$06
	.byte	$06
	.byte	$06
	.byte	$06
	.byte	$06
	.byte	$06
	.byte	$06
	.byte	$06
	.byte	$06
	.byte	$06
	.byte	$06
	.byte	$06
	.byte	$06
	.byte	$06
	.byte	$06
	.byte	$06
	.byte	$06
	.byte	$06
	.byte	$06
	.byte	$06
	.byte	$06
	.byte	$06
	.byte	$06
	.byte	$06
	.byte	$06
	.byte	$06
	.byte	$06
	.byte	$06
	.byte	$06
	.byte	$06
	.byte	$06
	.byte	$06
	.byte	$06
	.byte	$06
	.byte	$06
	.byte	$06
	.byte	$06
	.byte	$06
	.byte	$06
	.byte	$06
	.byte	$06
	.byte	$06
	.byte	$06
	.byte	$06
	.byte	$06
	.byte	$06
	.byte	$06
	.byte	$06
	.byte	$06
	.byte	$06
	.byte	$06
	.byte	$06
	.byte	$06
	.byte	$06
	.byte	$06
	.byte	$06
	.byte	$06
	.byte	$06
	.byte	$06
	.byte	$06
	.byte	$06
	.byte	$06
	.byte	$06
	.byte	$06
	.byte	$06
	.byte	$06
	.byte	$06
	.byte	$06
	.byte	$06
	.byte	$06
	.byte	$06
	.byte	$06
	.byte	$06
	.byte	$06
	.byte	$06
	.byte	$06
	.byte	$06
	.byte	$06
	.byte	$06
_Level3_2:
	.byte	$15
	.byte	$05
	.byte	$16
	.byte	$10
	.byte	$05
	.byte	$05
	.byte	$05
	.byte	$05
	.byte	$05
	.byte	$05
	.byte	$15
	.byte	$05
	.byte	$10
	.byte	$05
	.byte	$05
	.byte	$05
	.byte	$05
	.byte	$16
	.byte	$05
	.byte	$10
	.byte	$05
	.byte	$05
	.byte	$05
	.byte	$05
	.byte	$05
	.byte	$15
	.byte	$05
	.byte	$05
	.byte	$10
	.byte	$05
	.byte	$05
	.byte	$05
	.byte	$05
	.byte	$16
	.byte	$05
	.byte	$11
	.byte	$05
	.byte	$05
	.byte	$05
	.byte	$05
	.byte	$05
	.byte	$15
	.byte	$05
	.byte	$05
	.byte	$11
	.byte	$05
	.byte	$05
	.byte	$05
	.byte	$16
	.byte	$05
	.byte	$05
	.byte	$11
	.byte	$05
	.byte	$05
	.byte	$05
	.byte	$05
	.byte	$05
	.byte	$15
	.byte	$15
	.byte	$16
	.byte	$11
	.byte	$05
	.byte	$05
	.byte	$05
	.byte	$05
	.byte	$05
	.byte	$05
	.byte	$05
	.byte	$05
	.byte	$05
	.byte	$05
	.byte	$05
	.byte	$05
	.byte	$05
	.byte	$15
	.byte	$16
	.byte	$05
	.byte	$05
	.byte	$05
	.byte	$05
	.byte	$05
	.byte	$05
	.byte	$05
	.byte	$05
	.byte	$05
	.byte	$05
	.byte	$05
	.byte	$05
	.byte	$05
	.byte	$05
	.byte	$15
	.byte	$05
	.byte	$16
	.byte	$05
	.byte	$05
	.byte	$05
	.byte	$01
	.byte	$01
	.byte	$01
	.byte	$01
	.byte	$01
	.byte	$01
	.byte	$01
	.byte	$01
	.byte	$01
	.byte	$01
	.byte	$01
	.byte	$01
	.byte	$01
	.byte	$01
	.byte	$01
	.byte	$01
	.byte	$06
	.byte	$06
	.byte	$06
	.byte	$06
	.byte	$06
	.byte	$06
	.byte	$06
	.byte	$06
	.byte	$06
	.byte	$06
	.byte	$06
	.byte	$06
	.byte	$06
	.byte	$06
	.byte	$06
	.byte	$06
	.byte	$06
	.byte	$06
	.byte	$06
	.byte	$06
	.byte	$06
	.byte	$06
	.byte	$06
	.byte	$06
	.byte	$06
	.byte	$06
	.byte	$06
	.byte	$06
	.byte	$06
	.byte	$06
	.byte	$06
	.byte	$06
	.byte	$06
	.byte	$06
	.byte	$06
	.byte	$06
	.byte	$06
	.byte	$06
	.byte	$06
	.byte	$06
	.byte	$06
	.byte	$06
	.byte	$06
	.byte	$06
	.byte	$06
	.byte	$06
	.byte	$06
	.byte	$06
	.byte	$06
	.byte	$06
	.byte	$06
	.byte	$06
	.byte	$06
	.byte	$06
	.byte	$06
	.byte	$06
	.byte	$06
	.byte	$06
	.byte	$06
	.byte	$06
	.byte	$06
	.byte	$06
	.byte	$06
	.byte	$06
	.byte	$06
	.byte	$06
	.byte	$06
	.byte	$06
	.byte	$06
	.byte	$06
	.byte	$06
	.byte	$06
	.byte	$06
	.byte	$06
	.byte	$06
	.byte	$06
	.byte	$06
	.byte	$06
	.byte	$06
	.byte	$06
	.byte	$06
	.byte	$06
	.byte	$06
	.byte	$06
	.byte	$06
	.byte	$06
	.byte	$06
	.byte	$06
	.byte	$06
	.byte	$06
	.byte	$06
	.byte	$06
	.byte	$06
	.byte	$06
	.byte	$06
	.byte	$06
	.byte	$06
	.byte	$06
	.byte	$06
	.byte	$06
	.byte	$06
	.byte	$06
	.byte	$06
	.byte	$06
	.byte	$06
	.byte	$06
	.byte	$06
	.byte	$06
	.byte	$06
	.byte	$06
	.byte	$06
	.byte	$06
	.byte	$06
	.byte	$06
	.byte	$06
	.byte	$06
	.byte	$06
	.byte	$06
	.byte	$06
	.byte	$06
	.byte	$06
	.byte	$06
	.byte	$06
	.byte	$06
	.byte	$06
	.byte	$06
	.byte	$06
	.byte	$06
_Level3_3:
	.byte	$05
	.byte	$05
	.byte	$05
	.byte	$05
	.byte	$05
	.byte	$16
	.byte	$05
	.byte	$10
	.byte	$05
	.byte	$05
	.byte	$05
	.byte	$05
	.byte	$05
	.byte	$05
	.byte	$05
	.byte	$05
	.byte	$05
	.byte	$05
	.byte	$05
	.byte	$05
	.byte	$05
	.byte	$16
	.byte	$05
	.byte	$10
	.byte	$05
	.byte	$05
	.byte	$05
	.byte	$05
	.byte	$05
	.byte	$05
	.byte	$05
	.byte	$05
	.byte	$05
	.byte	$05
	.byte	$05
	.byte	$15
	.byte	$05
	.byte	$16
	.byte	$05
	.byte	$11
	.byte	$15
	.byte	$05
	.byte	$05
	.byte	$05
	.byte	$05
	.byte	$05
	.byte	$05
	.byte	$05
	.byte	$05
	.byte	$05
	.byte	$05
	.byte	$05
	.byte	$15
	.byte	$16
	.byte	$05
	.byte	$11
	.byte	$05
	.byte	$05
	.byte	$05
	.byte	$05
	.byte	$05
	.byte	$05
	.byte	$05
	.byte	$05
	.byte	$05
	.byte	$05
	.byte	$05
	.byte	$05
	.byte	$05
	.byte	$16
	.byte	$16
	.byte	$05
	.byte	$05
	.byte	$05
	.byte	$05
	.byte	$05
	.byte	$05
	.byte	$05
	.byte	$15
	.byte	$15
	.byte	$05
	.byte	$05
	.byte	$05
	.byte	$05
	.byte	$05
	.byte	$05
	.byte	$16
	.byte	$05
	.byte	$05
	.byte	$05
	.byte	$05
	.byte	$05
	.byte	$05
	.byte	$05
	.byte	$05
	.byte	$05
	.byte	$01
	.byte	$01
	.byte	$01
	.byte	$01
	.byte	$01
	.byte	$01
	.byte	$01
	.byte	$01
	.byte	$01
	.byte	$01
	.byte	$01
	.byte	$01
	.byte	$01
	.byte	$01
	.byte	$01
	.byte	$01
	.byte	$06
	.byte	$06
	.byte	$06
	.byte	$06
	.byte	$06
	.byte	$06
	.byte	$06
	.byte	$06
	.byte	$06
	.byte	$06
	.byte	$06
	.byte	$06
	.byte	$06
	.byte	$06
	.byte	$06
	.byte	$06
	.byte	$06
	.byte	$06
	.byte	$06
	.byte	$06
	.byte	$06
	.byte	$06
	.byte	$06
	.byte	$06
	.byte	$06
	.byte	$06
	.byte	$06
	.byte	$06
	.byte	$06
	.byte	$06
	.byte	$06
	.byte	$06
	.byte	$06
	.byte	$06
	.byte	$06
	.byte	$06
	.byte	$06
	.byte	$06
	.byte	$06
	.byte	$06
	.byte	$06
	.byte	$06
	.byte	$06
	.byte	$06
	.byte	$06
	.byte	$06
	.byte	$06
	.byte	$06
	.byte	$06
	.byte	$06
	.byte	$06
	.byte	$06
	.byte	$06
	.byte	$06
	.byte	$06
	.byte	$06
	.byte	$06
	.byte	$06
	.byte	$06
	.byte	$06
	.byte	$06
	.byte	$06
	.byte	$06
	.byte	$06
	.byte	$06
	.byte	$06
	.byte	$06
	.byte	$06
	.byte	$06
	.byte	$06
	.byte	$06
	.byte	$06
	.byte	$06
	.byte	$06
	.byte	$06
	.byte	$06
	.byte	$06
	.byte	$06
	.byte	$06
	.byte	$06
	.byte	$06
	.byte	$06
	.byte	$06
	.byte	$06
	.byte	$06
	.byte	$06
	.byte	$06
	.byte	$06
	.byte	$06
	.byte	$06
	.byte	$06
	.byte	$06
	.byte	$06
	.byte	$06
	.byte	$06
	.byte	$06
	.byte	$06
	.byte	$06
	.byte	$06
	.byte	$06
	.byte	$06
	.byte	$06
	.byte	$06
	.byte	$06
	.byte	$06
	.byte	$06
	.byte	$06
	.byte	$06
	.byte	$06
	.byte	$06
	.byte	$06
	.byte	$06
	.byte	$06
	.byte	$06
	.byte	$06
	.byte	$06
	.byte	$06
	.byte	$06
	.byte	$06
	.byte	$06
	.byte	$06
	.byte	$06
	.byte	$06
	.byte	$06
	.byte	$06
	.byte	$06
	.byte	$06
	.byte	$06
_Level3_4:
	.byte	$05
	.byte	$05
	.byte	$05
	.byte	$05
	.byte	$10
	.byte	$05
	.byte	$05
	.byte	$05
	.byte	$05
	.byte	$05
	.byte	$15
	.byte	$05
	.byte	$05
	.byte	$05
	.byte	$05
	.byte	$05
	.byte	$15
	.byte	$05
	.byte	$05
	.byte	$05
	.byte	$10
	.byte	$05
	.byte	$05
	.byte	$05
	.byte	$05
	.byte	$05
	.byte	$15
	.byte	$05
	.byte	$05
	.byte	$05
	.byte	$05
	.byte	$16
	.byte	$15
	.byte	$05
	.byte	$05
	.byte	$05
	.byte	$11
	.byte	$05
	.byte	$16
	.byte	$05
	.byte	$05
	.byte	$05
	.byte	$15
	.byte	$05
	.byte	$05
	.byte	$05
	.byte	$05
	.byte	$05
	.byte	$15
	.byte	$15
	.byte	$15
	.byte	$16
	.byte	$11
	.byte	$16
	.byte	$16
	.byte	$05
	.byte	$05
	.byte	$05
	.byte	$15
	.byte	$16
	.byte	$05
	.byte	$05
	.byte	$05
	.byte	$05
	.byte	$05
	.byte	$05
	.byte	$05
	.byte	$05
	.byte	$05
	.byte	$05
	.byte	$05
	.byte	$05
	.byte	$05
	.byte	$05
	.byte	$05
	.byte	$15
	.byte	$05
	.byte	$05
	.byte	$05
	.byte	$05
	.byte	$05
	.byte	$05
	.byte	$05
	.byte	$05
	.byte	$05
	.byte	$05
	.byte	$05
	.byte	$05
	.byte	$05
	.byte	$05
	.byte	$05
	.byte	$15
	.byte	$05
	.byte	$05
	.byte	$05
	.byte	$05
	.byte	$01
	.byte	$01
	.byte	$01
	.byte	$01
	.byte	$01
	.byte	$01
	.byte	$01
	.byte	$01
	.byte	$01
	.byte	$01
	.byte	$01
	.byte	$01
	.byte	$01
	.byte	$01
	.byte	$01
	.byte	$01
	.byte	$06
	.byte	$06
	.byte	$06
	.byte	$06
	.byte	$06
	.byte	$06
	.byte	$06
	.byte	$06
	.byte	$06
	.byte	$06
	.byte	$06
	.byte	$06
	.byte	$06
	.byte	$06
	.byte	$06
	.byte	$06
	.byte	$06
	.byte	$06
	.byte	$06
	.byte	$06
	.byte	$06
	.byte	$06
	.byte	$06
	.byte	$06
	.byte	$06
	.byte	$06
	.byte	$06
	.byte	$06
	.byte	$06
	.byte	$06
	.byte	$06
	.byte	$06
	.byte	$06
	.byte	$06
	.byte	$06
	.byte	$06
	.byte	$06
	.byte	$06
	.byte	$06
	.byte	$06
	.byte	$06
	.byte	$06
	.byte	$06
	.byte	$06
	.byte	$06
	.byte	$06
	.byte	$06
	.byte	$06
	.byte	$06
	.byte	$06
	.byte	$06
	.byte	$06
	.byte	$06
	.byte	$06
	.byte	$06
	.byte	$06
	.byte	$06
	.byte	$06
	.byte	$06
	.byte	$06
	.byte	$06
	.byte	$06
	.byte	$06
	.byte	$06
	.byte	$06
	.byte	$06
	.byte	$06
	.byte	$06
	.byte	$06
	.byte	$06
	.byte	$06
	.byte	$06
	.byte	$06
	.byte	$06
	.byte	$06
	.byte	$06
	.byte	$06
	.byte	$06
	.byte	$06
	.byte	$06
	.byte	$06
	.byte	$06
	.byte	$06
	.byte	$06
	.byte	$06
	.byte	$06
	.byte	$06
	.byte	$06
	.byte	$06
	.byte	$06
	.byte	$06
	.byte	$06
	.byte	$06
	.byte	$06
	.byte	$06
	.byte	$06
	.byte	$06
	.byte	$06
	.byte	$06
	.byte	$06
	.byte	$06
	.byte	$06
	.byte	$06
	.byte	$06
	.byte	$06
	.byte	$06
	.byte	$06
	.byte	$06
	.byte	$06
	.byte	$06
	.byte	$06
	.byte	$06
	.byte	$06
	.byte	$06
	.byte	$06
	.byte	$06
	.byte	$06
	.byte	$06
	.byte	$06
	.byte	$06
	.byte	$06
	.byte	$06
	.byte	$06
	.byte	$06
	.byte	$06
	.byte	$06
	.byte	$06
	.byte	$06
_Level3_5:
	.byte	$05
	.byte	$05
	.byte	$05
	.byte	$10
	.byte	$05
	.byte	$05
	.byte	$05
	.byte	$05
	.byte	$15
	.byte	$05
	.byte	$05
	.byte	$05
	.byte	$05
	.byte	$05
	.byte	$05
	.byte	$10
	.byte	$05
	.byte	$05
	.byte	$05
	.byte	$10
	.byte	$05
	.byte	$05
	.byte	$05
	.byte	$05
	.byte	$05
	.byte	$16
	.byte	$05
	.byte	$05
	.byte	$05
	.byte	$05
	.byte	$05
	.byte	$10
	.byte	$16
	.byte	$05
	.byte	$05
	.byte	$11
	.byte	$05
	.byte	$05
	.byte	$05
	.byte	$16
	.byte	$16
	.byte	$05
	.byte	$15
	.byte	$05
	.byte	$05
	.byte	$05
	.byte	$05
	.byte	$11
	.byte	$16
	.byte	$05
	.byte	$05
	.byte	$11
	.byte	$05
	.byte	$05
	.byte	$16
	.byte	$05
	.byte	$05
	.byte	$05
	.byte	$05
	.byte	$15
	.byte	$05
	.byte	$05
	.byte	$16
	.byte	$11
	.byte	$16
	.byte	$05
	.byte	$05
	.byte	$05
	.byte	$05
	.byte	$05
	.byte	$05
	.byte	$05
	.byte	$05
	.byte	$05
	.byte	$05
	.byte	$15
	.byte	$05
	.byte	$05
	.byte	$05
	.byte	$05
	.byte	$05
	.byte	$05
	.byte	$05
	.byte	$05
	.byte	$05
	.byte	$05
	.byte	$05
	.byte	$05
	.byte	$05
	.byte	$05
	.byte	$05
	.byte	$05
	.byte	$05
	.byte	$05
	.byte	$05
	.byte	$05
	.byte	$01
	.byte	$01
	.byte	$01
	.byte	$01
	.byte	$01
	.byte	$01
	.byte	$01
	.byte	$01
	.byte	$01
	.byte	$01
	.byte	$01
	.byte	$01
	.byte	$01
	.byte	$01
	.byte	$01
	.byte	$01
	.byte	$06
	.byte	$06
	.byte	$06
	.byte	$06
	.byte	$06
	.byte	$06
	.byte	$06
	.byte	$06
	.byte	$06
	.byte	$06
	.byte	$06
	.byte	$06
	.byte	$06
	.byte	$06
	.byte	$06
	.byte	$06
	.byte	$06
	.byte	$06
	.byte	$06
	.byte	$06
	.byte	$06
	.byte	$06
	.byte	$06
	.byte	$06
	.byte	$06
	.byte	$06
	.byte	$06
	.byte	$06
	.byte	$06
	.byte	$06
	.byte	$06
	.byte	$06
	.byte	$06
	.byte	$06
	.byte	$06
	.byte	$06
	.byte	$06
	.byte	$06
	.byte	$06
	.byte	$06
	.byte	$06
	.byte	$06
	.byte	$06
	.byte	$06
	.byte	$06
	.byte	$06
	.byte	$06
	.byte	$06
	.byte	$06
	.byte	$06
	.byte	$06
	.byte	$06
	.byte	$06
	.byte	$06
	.byte	$06
	.byte	$06
	.byte	$06
	.byte	$06
	.byte	$06
	.byte	$06
	.byte	$06
	.byte	$06
	.byte	$06
	.byte	$06
	.byte	$06
	.byte	$06
	.byte	$06
	.byte	$06
	.byte	$06
	.byte	$06
	.byte	$06
	.byte	$06
	.byte	$06
	.byte	$06
	.byte	$06
	.byte	$06
	.byte	$06
	.byte	$06
	.byte	$06
	.byte	$06
	.byte	$06
	.byte	$06
	.byte	$06
	.byte	$06
	.byte	$06
	.byte	$06
	.byte	$06
	.byte	$06
	.byte	$06
	.byte	$06
	.byte	$06
	.byte	$06
	.byte	$06
	.byte	$06
	.byte	$06
	.byte	$06
	.byte	$06
	.byte	$06
	.byte	$06
	.byte	$06
	.byte	$06
	.byte	$06
	.byte	$06
	.byte	$06
	.byte	$06
	.byte	$06
	.byte	$06
	.byte	$06
	.byte	$06
	.byte	$06
	.byte	$06
	.byte	$06
	.byte	$06
	.byte	$06
	.byte	$06
	.byte	$06
	.byte	$06
	.byte	$06
	.byte	$06
	.byte	$06
	.byte	$06
	.byte	$06
	.byte	$06
	.byte	$06
	.byte	$06
	.byte	$06
	.byte	$06
	.byte	$06
_Level3_6:
	.byte	$16
	.byte	$05
	.byte	$05
	.byte	$05
	.byte	$05
	.byte	$05
	.byte	$05
	.byte	$05
	.byte	$05
	.byte	$05
	.byte	$05
	.byte	$05
	.byte	$05
	.byte	$10
	.byte	$05
	.byte	$05
	.byte	$05
	.byte	$05
	.byte	$05
	.byte	$05
	.byte	$05
	.byte	$05
	.byte	$05
	.byte	$05
	.byte	$05
	.byte	$05
	.byte	$15
	.byte	$16
	.byte	$05
	.byte	$10
	.byte	$05
	.byte	$05
	.byte	$05
	.byte	$05
	.byte	$05
	.byte	$05
	.byte	$16
	.byte	$05
	.byte	$05
	.byte	$05
	.byte	$05
	.byte	$16
	.byte	$05
	.byte	$05
	.byte	$05
	.byte	$11
	.byte	$05
	.byte	$05
	.byte	$05
	.byte	$05
	.byte	$05
	.byte	$05
	.byte	$05
	.byte	$05
	.byte	$05
	.byte	$15
	.byte	$15
	.byte	$05
	.byte	$05
	.byte	$05
	.byte	$05
	.byte	$11
	.byte	$05
	.byte	$05
	.byte	$05
	.byte	$16
	.byte	$05
	.byte	$05
	.byte	$16
	.byte	$05
	.byte	$05
	.byte	$05
	.byte	$05
	.byte	$05
	.byte	$05
	.byte	$05
	.byte	$05
	.byte	$05
	.byte	$05
	.byte	$05
	.byte	$05
	.byte	$05
	.byte	$05
	.byte	$05
	.byte	$05
	.byte	$05
	.byte	$05
	.byte	$05
	.byte	$05
	.byte	$05
	.byte	$05
	.byte	$05
	.byte	$05
	.byte	$05
	.byte	$05
	.byte	$05
	.byte	$01
	.byte	$01
	.byte	$01
	.byte	$01
	.byte	$01
	.byte	$01
	.byte	$01
	.byte	$01
	.byte	$01
	.byte	$01
	.byte	$01
	.byte	$01
	.byte	$01
	.byte	$01
	.byte	$01
	.byte	$01
	.byte	$06
	.byte	$06
	.byte	$06
	.byte	$06
	.byte	$06
	.byte	$06
	.byte	$06
	.byte	$06
	.byte	$06
	.byte	$06
	.byte	$06
	.byte	$06
	.byte	$06
	.byte	$06
	.byte	$06
	.byte	$06
	.byte	$06
	.byte	$06
	.byte	$06
	.byte	$06
	.byte	$06
	.byte	$06
	.byte	$06
	.byte	$06
	.byte	$06
	.byte	$06
	.byte	$06
	.byte	$06
	.byte	$06
	.byte	$06
	.byte	$06
	.byte	$06
	.byte	$06
	.byte	$06
	.byte	$06
	.byte	$06
	.byte	$06
	.byte	$06
	.byte	$06
	.byte	$06
	.byte	$06
	.byte	$06
	.byte	$06
	.byte	$06
	.byte	$06
	.byte	$06
	.byte	$06
	.byte	$06
	.byte	$06
	.byte	$06
	.byte	$06
	.byte	$06
	.byte	$06
	.byte	$06
	.byte	$06
	.byte	$06
	.byte	$06
	.byte	$06
	.byte	$06
	.byte	$06
	.byte	$06
	.byte	$06
	.byte	$06
	.byte	$06
	.byte	$06
	.byte	$06
	.byte	$06
	.byte	$06
	.byte	$06
	.byte	$06
	.byte	$06
	.byte	$06
	.byte	$06
	.byte	$06
	.byte	$06
	.byte	$06
	.byte	$06
	.byte	$06
	.byte	$06
	.byte	$06
	.byte	$06
	.byte	$06
	.byte	$06
	.byte	$06
	.byte	$06
	.byte	$06
	.byte	$06
	.byte	$06
	.byte	$06
	.byte	$06
	.byte	$06
	.byte	$06
	.byte	$06
	.byte	$06
	.byte	$06
	.byte	$06
	.byte	$06
	.byte	$06
	.byte	$06
	.byte	$06
	.byte	$06
	.byte	$06
	.byte	$06
	.byte	$06
	.byte	$06
	.byte	$06
	.byte	$06
	.byte	$06
	.byte	$06
	.byte	$06
	.byte	$06
	.byte	$06
	.byte	$06
	.byte	$06
	.byte	$06
	.byte	$06
	.byte	$06
	.byte	$06
	.byte	$06
	.byte	$06
	.byte	$06
	.byte	$06
	.byte	$06
	.byte	$06
	.byte	$06
	.byte	$06
	.byte	$06
	.byte	$06
_Level3_7:
	.byte	$05
	.byte	$05
	.byte	$05
	.byte	$05
	.byte	$05
	.byte	$05
	.byte	$05
	.byte	$10
	.byte	$05
	.byte	$05
	.byte	$05
	.byte	$05
	.byte	$05
	.byte	$05
	.byte	$01
	.byte	$04
	.byte	$05
	.byte	$05
	.byte	$05
	.byte	$05
	.byte	$05
	.byte	$05
	.byte	$05
	.byte	$10
	.byte	$05
	.byte	$05
	.byte	$05
	.byte	$05
	.byte	$05
	.byte	$05
	.byte	$01
	.byte	$04
	.byte	$05
	.byte	$05
	.byte	$15
	.byte	$15
	.byte	$15
	.byte	$05
	.byte	$05
	.byte	$11
	.byte	$05
	.byte	$05
	.byte	$05
	.byte	$05
	.byte	$05
	.byte	$05
	.byte	$01
	.byte	$04
	.byte	$05
	.byte	$05
	.byte	$15
	.byte	$05
	.byte	$05
	.byte	$05
	.byte	$05
	.byte	$11
	.byte	$05
	.byte	$05
	.byte	$16
	.byte	$05
	.byte	$05
	.byte	$05
	.byte	$01
	.byte	$04
	.byte	$05
	.byte	$05
	.byte	$15
	.byte	$15
	.byte	$15
	.byte	$05
	.byte	$05
	.byte	$05
	.byte	$05
	.byte	$16
	.byte	$05
	.byte	$05
	.byte	$05
	.byte	$05
	.byte	$01
	.byte	$04
	.byte	$05
	.byte	$05
	.byte	$05
	.byte	$05
	.byte	$05
	.byte	$05
	.byte	$05
	.byte	$05
	.byte	$05
	.byte	$05
	.byte	$16
	.byte	$05
	.byte	$05
	.byte	$05
	.byte	$01
	.byte	$04
	.byte	$01
	.byte	$01
	.byte	$01
	.byte	$01
	.byte	$01
	.byte	$01
	.byte	$01
	.byte	$01
	.byte	$01
	.byte	$01
	.byte	$01
	.byte	$01
	.byte	$01
	.byte	$01
	.byte	$01
	.byte	$04
	.byte	$06
	.byte	$06
	.byte	$06
	.byte	$06
	.byte	$06
	.byte	$06
	.byte	$06
	.byte	$06
	.byte	$06
	.byte	$06
	.byte	$06
	.byte	$06
	.byte	$06
	.byte	$06
	.byte	$01
	.byte	$04
	.byte	$06
	.byte	$06
	.byte	$06
	.byte	$06
	.byte	$06
	.byte	$06
	.byte	$06
	.byte	$06
	.byte	$06
	.byte	$06
	.byte	$06
	.byte	$06
	.byte	$06
	.byte	$06
	.byte	$01
	.byte	$04
	.byte	$06
	.byte	$06
	.byte	$06
	.byte	$06
	.byte	$06
	.byte	$06
	.byte	$06
	.byte	$06
	.byte	$06
	.byte	$06
	.byte	$06
	.byte	$06
	.byte	$06
	.byte	$06
	.byte	$01
	.byte	$04
	.byte	$06
	.byte	$06
	.byte	$06
	.byte	$06
	.byte	$06
	.byte	$06
	.byte	$06
	.byte	$06
	.byte	$06
	.byte	$06
	.byte	$06
	.byte	$06
	.byte	$06
	.byte	$06
	.byte	$01
	.byte	$04
	.byte	$06
	.byte	$06
	.byte	$06
	.byte	$06
	.byte	$06
	.byte	$06
	.byte	$06
	.byte	$06
	.byte	$06
	.byte	$06
	.byte	$06
	.byte	$06
	.byte	$06
	.byte	$06
	.byte	$01
	.byte	$04
	.byte	$06
	.byte	$06
	.byte	$06
	.byte	$06
	.byte	$06
	.byte	$06
	.byte	$06
	.byte	$06
	.byte	$06
	.byte	$06
	.byte	$06
	.byte	$06
	.byte	$06
	.byte	$06
	.byte	$01
	.byte	$04
	.byte	$06
	.byte	$06
	.byte	$06
	.byte	$06
	.byte	$06
	.byte	$06
	.byte	$06
	.byte	$06
	.byte	$06
	.byte	$06
	.byte	$06
	.byte	$06
	.byte	$06
	.byte	$06
	.byte	$01
	.byte	$04
	.byte	$06
	.byte	$06
	.byte	$06
	.byte	$06
	.byte	$06
	.byte	$06
	.byte	$06
	.byte	$06
	.byte	$06
	.byte	$06
	.byte	$06
	.byte	$06
	.byte	$06
	.byte	$06
	.byte	$01
	.byte	$04
_Level3_8:
	.byte	$04
	.byte	$04
	.byte	$04
	.byte	$04
	.byte	$04
	.byte	$04
	.byte	$04
	.byte	$04
	.byte	$04
	.byte	$04
	.byte	$04
	.byte	$04
	.byte	$04
	.byte	$04
	.byte	$04
	.byte	$04
	.byte	$04
	.byte	$04
	.byte	$04
	.byte	$04
	.byte	$04
	.byte	$04
	.byte	$04
	.byte	$04
	.byte	$04
	.byte	$04
	.byte	$04
	.byte	$04
	.byte	$04
	.byte	$04
	.byte	$04
	.byte	$04
	.byte	$04
	.byte	$04
	.byte	$04
	.byte	$04
	.byte	$04
	.byte	$04
	.byte	$04
	.byte	$04
	.byte	$04
	.byte	$04
	.byte	$04
	.byte	$04
	.byte	$04
	.byte	$04
	.byte	$04
	.byte	$04
	.byte	$04
	.byte	$04
	.byte	$04
	.byte	$04
	.byte	$04
	.byte	$04
	.byte	$04
	.byte	$04
	.byte	$04
	.byte	$04
	.byte	$04
	.byte	$04
	.byte	$04
	.byte	$04
	.byte	$04
	.byte	$04
	.byte	$04
	.byte	$04
	.byte	$04
	.byte	$04
	.byte	$04
	.byte	$04
	.byte	$04
	.byte	$04
	.byte	$04
	.byte	$04
	.byte	$04
	.byte	$04
	.byte	$04
	.byte	$04
	.byte	$04
	.byte	$04
	.byte	$04
	.byte	$04
	.byte	$04
	.byte	$04
	.byte	$04
	.byte	$04
	.byte	$04
	.byte	$04
	.byte	$04
	.byte	$04
	.byte	$04
	.byte	$04
	.byte	$04
	.byte	$04
	.byte	$04
	.byte	$04
	.byte	$04
	.byte	$04
	.byte	$04
	.byte	$04
	.byte	$04
	.byte	$04
	.byte	$04
	.byte	$04
	.byte	$04
	.byte	$04
	.byte	$04
	.byte	$04
	.byte	$04
	.byte	$04
	.byte	$04
	.byte	$04
	.byte	$04
	.byte	$04
	.byte	$04
	.byte	$04
	.byte	$04
	.byte	$04
	.byte	$04
	.byte	$04
	.byte	$04
	.byte	$04
	.byte	$04
	.byte	$04
	.byte	$04
	.byte	$04
	.byte	$04
	.byte	$04
	.byte	$04
	.byte	$04
	.byte	$04
	.byte	$04
	.byte	$04
	.byte	$04
	.byte	$04
	.byte	$04
	.byte	$04
	.byte	$04
	.byte	$04
	.byte	$04
	.byte	$04
	.byte	$04
	.byte	$04
	.byte	$04
	.byte	$04
	.byte	$04
	.byte	$04
	.byte	$04
	.byte	$04
	.byte	$04
	.byte	$04
	.byte	$04
	.byte	$04
	.byte	$04
	.byte	$04
	.byte	$04
	.byte	$04
	.byte	$04
	.byte	$04
	.byte	$04
	.byte	$04
	.byte	$04
	.byte	$04
	.byte	$04
	.byte	$04
	.byte	$04
	.byte	$04
	.byte	$04
	.byte	$04
	.byte	$04
	.byte	$04
	.byte	$04
	.byte	$04
	.byte	$04
	.byte	$04
	.byte	$04
	.byte	$04
	.byte	$04
	.byte	$04
	.byte	$04
	.byte	$04
	.byte	$04
	.byte	$04
	.byte	$04
	.byte	$04
	.byte	$04
	.byte	$04
	.byte	$04
	.byte	$04
	.byte	$04
	.byte	$04
	.byte	$04
	.byte	$04
	.byte	$04
	.byte	$04
	.byte	$04
	.byte	$04
	.byte	$04
	.byte	$04
	.byte	$04
	.byte	$04
	.byte	$04
	.byte	$04
	.byte	$04
	.byte	$04
	.byte	$04
	.byte	$04
	.byte	$04
	.byte	$04
	.byte	$04
	.byte	$04
	.byte	$04
	.byte	$04
	.byte	$04
	.byte	$04
	.byte	$04
	.byte	$04
	.byte	$04
	.byte	$04
	.byte	$04
	.byte	$04
	.byte	$04
	.byte	$04
	.byte	$04
	.byte	$04
	.byte	$04
	.byte	$04
	.byte	$04
	.byte	$04
	.byte	$04
	.byte	$04
	.byte	$04
	.byte	$04
	.byte	$04
	.byte	$04
	.byte	$04
	.byte	$04
	.byte	$04
	.byte	$04
	.byte	$04
_Level3_9:
	.byte	$04
	.byte	$04
	.byte	$04
	.byte	$04
	.byte	$04
	.byte	$04
	.byte	$04
	.byte	$04
	.byte	$04
	.byte	$04
	.byte	$04
	.byte	$04
	.byte	$04
	.byte	$04
	.byte	$04
	.byte	$18
	.byte	$04
	.byte	$04
	.byte	$04
	.byte	$04
	.byte	$04
	.byte	$04
	.byte	$04
	.byte	$04
	.byte	$04
	.byte	$04
	.byte	$04
	.byte	$04
	.byte	$04
	.byte	$04
	.byte	$04
	.byte	$18
	.byte	$04
	.byte	$04
	.byte	$04
	.byte	$04
	.byte	$04
	.byte	$04
	.byte	$04
	.byte	$04
	.byte	$04
	.byte	$04
	.byte	$04
	.byte	$04
	.byte	$04
	.byte	$04
	.byte	$04
	.byte	$18
	.byte	$04
	.byte	$04
	.byte	$04
	.byte	$04
	.byte	$04
	.byte	$04
	.byte	$04
	.byte	$04
	.byte	$04
	.byte	$04
	.byte	$04
	.byte	$04
	.byte	$04
	.byte	$04
	.byte	$04
	.byte	$18
	.byte	$04
	.byte	$04
	.byte	$04
	.byte	$04
	.byte	$04
	.byte	$04
	.byte	$04
	.byte	$04
	.byte	$04
	.byte	$04
	.byte	$04
	.byte	$04
	.byte	$04
	.byte	$04
	.byte	$04
	.byte	$18
	.byte	$04
	.byte	$04
	.byte	$04
	.byte	$04
	.byte	$04
	.byte	$04
	.byte	$04
	.byte	$04
	.byte	$04
	.byte	$04
	.byte	$04
	.byte	$04
	.byte	$04
	.byte	$04
	.byte	$04
	.byte	$18
	.byte	$04
	.byte	$04
	.byte	$04
	.byte	$04
	.byte	$04
	.byte	$04
	.byte	$04
	.byte	$04
	.byte	$04
	.byte	$04
	.byte	$04
	.byte	$04
	.byte	$04
	.byte	$04
	.byte	$04
	.byte	$18
	.byte	$04
	.byte	$04
	.byte	$04
	.byte	$04
	.byte	$04
	.byte	$04
	.byte	$04
	.byte	$04
	.byte	$04
	.byte	$04
	.byte	$04
	.byte	$04
	.byte	$04
	.byte	$04
	.byte	$04
	.byte	$18
	.byte	$04
	.byte	$04
	.byte	$04
	.byte	$04
	.byte	$04
	.byte	$04
	.byte	$04
	.byte	$04
	.byte	$04
	.byte	$04
	.byte	$04
	.byte	$04
	.byte	$04
	.byte	$04
	.byte	$04
	.byte	$18
	.byte	$04
	.byte	$04
	.byte	$04
	.byte	$04
	.byte	$04
	.byte	$04
	.byte	$04
	.byte	$04
	.byte	$04
	.byte	$04
	.byte	$04
	.byte	$04
	.byte	$04
	.byte	$04
	.byte	$04
	.byte	$18
	.byte	$04
	.byte	$04
	.byte	$04
	.byte	$04
	.byte	$04
	.byte	$04
	.byte	$04
	.byte	$04
	.byte	$04
	.byte	$04
	.byte	$04
	.byte	$04
	.byte	$04
	.byte	$04
	.byte	$04
	.byte	$18
	.byte	$04
	.byte	$04
	.byte	$04
	.byte	$04
	.byte	$04
	.byte	$04
	.byte	$04
	.byte	$04
	.byte	$04
	.byte	$04
	.byte	$04
	.byte	$04
	.byte	$04
	.byte	$04
	.byte	$04
	.byte	$18
	.byte	$04
	.byte	$04
	.byte	$04
	.byte	$04
	.byte	$04
	.byte	$04
	.byte	$04
	.byte	$04
	.byte	$04
	.byte	$04
	.byte	$04
	.byte	$04
	.byte	$04
	.byte	$04
	.byte	$04
	.byte	$18
	.byte	$04
	.byte	$04
	.byte	$04
	.byte	$04
	.byte	$04
	.byte	$04
	.byte	$04
	.byte	$04
	.byte	$04
	.byte	$04
	.byte	$04
	.byte	$04
	.byte	$04
	.byte	$04
	.byte	$04
	.byte	$18
	.byte	$04
	.byte	$04
	.byte	$04
	.byte	$04
	.byte	$04
	.byte	$04
	.byte	$04
	.byte	$04
	.byte	$04
	.byte	$04
	.byte	$04
	.byte	$04
	.byte	$04
	.byte	$04
	.byte	$04
	.byte	$18
_Level3_list:
	.addr	_Level3_0
	.addr	_Level3_1
	.addr	_Level3_2
	.addr	_Level3_3
	.addr	_Level3_4
	.addr	_Level3_5
	.addr	_Level3_6
	.addr	_Level3_7
	.addr	_Level3_8
	.addr	_Level3_9
_Level4_0:
	.byte	$15
	.byte	$15
	.byte	$15
	.byte	$15
	.byte	$15
	.byte	$15
	.byte	$15
	.byte	$15
	.byte	$15
	.byte	$15
	.byte	$15
	.byte	$15
	.byte	$15
	.byte	$15
	.byte	$15
	.byte	$15
	.byte	$15
	.byte	$06
	.byte	$0D
	.byte	$0D
	.byte	$0D
	.byte	$0D
	.byte	$06
	.byte	$06
	.byte	$06
	.byte	$06
	.byte	$0D
	.byte	$0D
	.byte	$0D
	.byte	$0D
	.byte	$06
	.byte	$06
	.byte	$15
	.byte	$06
	.byte	$0D
	.byte	$0D
	.byte	$0D
	.byte	$0D
	.byte	$05
	.byte	$05
	.byte	$05
	.byte	$06
	.byte	$0D
	.byte	$0D
	.byte	$0D
	.byte	$0D
	.byte	$06
	.byte	$05
	.byte	$15
	.byte	$06
	.byte	$0D
	.byte	$0D
	.byte	$0D
	.byte	$0D
	.byte	$05
	.byte	$08
	.byte	$05
	.byte	$06
	.byte	$0D
	.byte	$0D
	.byte	$0D
	.byte	$0D
	.byte	$06
	.byte	$05
	.byte	$15
	.byte	$06
	.byte	$0D
	.byte	$0D
	.byte	$0D
	.byte	$0D
	.byte	$05
	.byte	$05
	.byte	$05
	.byte	$06
	.byte	$0D
	.byte	$0D
	.byte	$0D
	.byte	$0D
	.byte	$06
	.byte	$05
	.byte	$15
	.byte	$06
	.byte	$0D
	.byte	$0D
	.byte	$0D
	.byte	$0D
	.byte	$15
	.byte	$15
	.byte	$06
	.byte	$06
	.byte	$0D
	.byte	$0D
	.byte	$0D
	.byte	$0D
	.byte	$06
	.byte	$06
	.byte	$15
	.byte	$06
	.byte	$0D
	.byte	$0D
	.byte	$0D
	.byte	$0D
	.byte	$15
	.byte	$15
	.byte	$06
	.byte	$06
	.byte	$0D
	.byte	$0D
	.byte	$0D
	.byte	$0D
	.byte	$06
	.byte	$06
	.byte	$15
	.byte	$02
	.byte	$02
	.byte	$02
	.byte	$02
	.byte	$02
	.byte	$02
	.byte	$02
	.byte	$02
	.byte	$02
	.byte	$02
	.byte	$02
	.byte	$02
	.byte	$02
	.byte	$02
	.byte	$02
	.byte	$15
	.byte	$02
	.byte	$02
	.byte	$02
	.byte	$02
	.byte	$02
	.byte	$02
	.byte	$02
	.byte	$02
	.byte	$02
	.byte	$02
	.byte	$02
	.byte	$02
	.byte	$02
	.byte	$02
	.byte	$02
	.byte	$15
	.byte	$02
	.byte	$02
	.byte	$02
	.byte	$02
	.byte	$02
	.byte	$02
	.byte	$02
	.byte	$02
	.byte	$02
	.byte	$02
	.byte	$02
	.byte	$02
	.byte	$02
	.byte	$02
	.byte	$02
	.byte	$15
	.byte	$02
	.byte	$02
	.byte	$02
	.byte	$02
	.byte	$02
	.byte	$02
	.byte	$02
	.byte	$02
	.byte	$02
	.byte	$02
	.byte	$02
	.byte	$02
	.byte	$02
	.byte	$02
	.byte	$02
	.byte	$15
	.byte	$02
	.byte	$02
	.byte	$02
	.byte	$02
	.byte	$02
	.byte	$02
	.byte	$02
	.byte	$02
	.byte	$02
	.byte	$02
	.byte	$02
	.byte	$02
	.byte	$02
	.byte	$02
	.byte	$02
	.byte	$15
	.byte	$02
	.byte	$02
	.byte	$02
	.byte	$02
	.byte	$02
	.byte	$02
	.byte	$02
	.byte	$02
	.byte	$02
	.byte	$02
	.byte	$02
	.byte	$02
	.byte	$02
	.byte	$02
	.byte	$02
	.byte	$15
	.byte	$02
	.byte	$02
	.byte	$02
	.byte	$02
	.byte	$02
	.byte	$02
	.byte	$02
	.byte	$02
	.byte	$02
	.byte	$02
	.byte	$02
	.byte	$02
	.byte	$02
	.byte	$02
	.byte	$02
	.byte	$15
	.byte	$15
	.byte	$15
	.byte	$15
	.byte	$15
	.byte	$15
	.byte	$15
	.byte	$15
	.byte	$15
	.byte	$15
	.byte	$15
	.byte	$15
	.byte	$15
	.byte	$15
	.byte	$15
	.byte	$15
_Level4_1:
	.byte	$15
	.byte	$15
	.byte	$15
	.byte	$15
	.byte	$15
	.byte	$15
	.byte	$15
	.byte	$15
	.byte	$15
	.byte	$15
	.byte	$15
	.byte	$15
	.byte	$15
	.byte	$15
	.byte	$15
	.byte	$15
	.byte	$06
	.byte	$06
	.byte	$06
	.byte	$06
	.byte	$0D
	.byte	$0D
	.byte	$0D
	.byte	$0D
	.byte	$06
	.byte	$06
	.byte	$06
	.byte	$06
	.byte	$06
	.byte	$06
	.byte	$0D
	.byte	$0D
	.byte	$05
	.byte	$05
	.byte	$05
	.byte	$06
	.byte	$0D
	.byte	$0D
	.byte	$0D
	.byte	$0D
	.byte	$06
	.byte	$05
	.byte	$05
	.byte	$05
	.byte	$05
	.byte	$06
	.byte	$0D
	.byte	$0D
	.byte	$01
	.byte	$01
	.byte	$05
	.byte	$06
	.byte	$0D
	.byte	$0D
	.byte	$0D
	.byte	$0D
	.byte	$06
	.byte	$05
	.byte	$0F
	.byte	$0F
	.byte	$05
	.byte	$06
	.byte	$0D
	.byte	$0D
	.byte	$05
	.byte	$05
	.byte	$05
	.byte	$06
	.byte	$0D
	.byte	$0D
	.byte	$0D
	.byte	$0D
	.byte	$06
	.byte	$05
	.byte	$05
	.byte	$05
	.byte	$05
	.byte	$06
	.byte	$0D
	.byte	$0D
	.byte	$15
	.byte	$15
	.byte	$06
	.byte	$06
	.byte	$0D
	.byte	$0D
	.byte	$0D
	.byte	$0D
	.byte	$06
	.byte	$06
	.byte	$15
	.byte	$15
	.byte	$06
	.byte	$06
	.byte	$0D
	.byte	$0D
	.byte	$15
	.byte	$15
	.byte	$06
	.byte	$06
	.byte	$0D
	.byte	$0D
	.byte	$0D
	.byte	$0D
	.byte	$06
	.byte	$06
	.byte	$15
	.byte	$15
	.byte	$06
	.byte	$06
	.byte	$0D
	.byte	$0D
	.byte	$02
	.byte	$02
	.byte	$02
	.byte	$02
	.byte	$02
	.byte	$02
	.byte	$02
	.byte	$02
	.byte	$02
	.byte	$02
	.byte	$02
	.byte	$02
	.byte	$02
	.byte	$02
	.byte	$02
	.byte	$02
	.byte	$02
	.byte	$02
	.byte	$02
	.byte	$02
	.byte	$02
	.byte	$02
	.byte	$02
	.byte	$02
	.byte	$02
	.byte	$02
	.byte	$02
	.byte	$02
	.byte	$02
	.byte	$02
	.byte	$02
	.byte	$02
	.byte	$02
	.byte	$02
	.byte	$02
	.byte	$02
	.byte	$02
	.byte	$02
	.byte	$02
	.byte	$02
	.byte	$02
	.byte	$02
	.byte	$02
	.byte	$02
	.byte	$02
	.byte	$02
	.byte	$02
	.byte	$02
	.byte	$02
	.byte	$02
	.byte	$02
	.byte	$02
	.byte	$02
	.byte	$02
	.byte	$02
	.byte	$02
	.byte	$02
	.byte	$02
	.byte	$02
	.byte	$02
	.byte	$02
	.byte	$02
	.byte	$02
	.byte	$02
	.byte	$02
	.byte	$02
	.byte	$02
	.byte	$02
	.byte	$02
	.byte	$02
	.byte	$02
	.byte	$02
	.byte	$02
	.byte	$02
	.byte	$02
	.byte	$02
	.byte	$02
	.byte	$02
	.byte	$02
	.byte	$02
	.byte	$02
	.byte	$02
	.byte	$02
	.byte	$02
	.byte	$02
	.byte	$02
	.byte	$02
	.byte	$02
	.byte	$02
	.byte	$02
	.byte	$02
	.byte	$02
	.byte	$02
	.byte	$02
	.byte	$02
	.byte	$02
	.byte	$02
	.byte	$02
	.byte	$02
	.byte	$02
	.byte	$02
	.byte	$02
	.byte	$02
	.byte	$02
	.byte	$02
	.byte	$02
	.byte	$02
	.byte	$02
	.byte	$02
	.byte	$02
	.byte	$02
	.byte	$02
	.byte	$15
	.byte	$15
	.byte	$15
	.byte	$15
	.byte	$15
	.byte	$15
	.byte	$15
	.byte	$15
	.byte	$15
	.byte	$15
	.byte	$15
	.byte	$15
	.byte	$15
	.byte	$15
	.byte	$15
	.byte	$15
_Level4_2:
	.byte	$15
	.byte	$15
	.byte	$15
	.byte	$15
	.byte	$15
	.byte	$15
	.byte	$15
	.byte	$15
	.byte	$15
	.byte	$15
	.byte	$15
	.byte	$15
	.byte	$15
	.byte	$15
	.byte	$15
	.byte	$15
	.byte	$0D
	.byte	$0D
	.byte	$06
	.byte	$06
	.byte	$06
	.byte	$06
	.byte	$06
	.byte	$06
	.byte	$06
	.byte	$06
	.byte	$0D
	.byte	$0D
	.byte	$0D
	.byte	$0D
	.byte	$06
	.byte	$06
	.byte	$0D
	.byte	$0D
	.byte	$06
	.byte	$06
	.byte	$05
	.byte	$05
	.byte	$05
	.byte	$05
	.byte	$06
	.byte	$06
	.byte	$0D
	.byte	$0D
	.byte	$0D
	.byte	$0D
	.byte	$06
	.byte	$06
	.byte	$0D
	.byte	$0D
	.byte	$06
	.byte	$06
	.byte	$05
	.byte	$0D
	.byte	$0D
	.byte	$05
	.byte	$06
	.byte	$06
	.byte	$0D
	.byte	$0D
	.byte	$0D
	.byte	$0D
	.byte	$06
	.byte	$06
	.byte	$0D
	.byte	$0D
	.byte	$06
	.byte	$06
	.byte	$05
	.byte	$05
	.byte	$05
	.byte	$05
	.byte	$06
	.byte	$06
	.byte	$0D
	.byte	$0D
	.byte	$0D
	.byte	$0D
	.byte	$06
	.byte	$06
	.byte	$0D
	.byte	$0D
	.byte	$06
	.byte	$06
	.byte	$06
	.byte	$15
	.byte	$15
	.byte	$06
	.byte	$06
	.byte	$06
	.byte	$0D
	.byte	$0D
	.byte	$0D
	.byte	$0D
	.byte	$06
	.byte	$06
	.byte	$0D
	.byte	$0D
	.byte	$06
	.byte	$06
	.byte	$06
	.byte	$15
	.byte	$15
	.byte	$06
	.byte	$06
	.byte	$06
	.byte	$0D
	.byte	$0D
	.byte	$0D
	.byte	$0D
	.byte	$06
	.byte	$06
	.byte	$02
	.byte	$02
	.byte	$02
	.byte	$02
	.byte	$02
	.byte	$02
	.byte	$02
	.byte	$02
	.byte	$02
	.byte	$02
	.byte	$02
	.byte	$02
	.byte	$02
	.byte	$02
	.byte	$02
	.byte	$02
	.byte	$02
	.byte	$02
	.byte	$02
	.byte	$02
	.byte	$02
	.byte	$02
	.byte	$02
	.byte	$02
	.byte	$02
	.byte	$02
	.byte	$02
	.byte	$02
	.byte	$02
	.byte	$02
	.byte	$02
	.byte	$02
	.byte	$02
	.byte	$02
	.byte	$02
	.byte	$02
	.byte	$02
	.byte	$02
	.byte	$02
	.byte	$02
	.byte	$02
	.byte	$02
	.byte	$02
	.byte	$02
	.byte	$02
	.byte	$02
	.byte	$02
	.byte	$02
	.byte	$02
	.byte	$02
	.byte	$02
	.byte	$02
	.byte	$02
	.byte	$02
	.byte	$02
	.byte	$02
	.byte	$02
	.byte	$02
	.byte	$02
	.byte	$02
	.byte	$02
	.byte	$02
	.byte	$02
	.byte	$02
	.byte	$02
	.byte	$02
	.byte	$02
	.byte	$02
	.byte	$02
	.byte	$02
	.byte	$02
	.byte	$02
	.byte	$02
	.byte	$02
	.byte	$02
	.byte	$02
	.byte	$02
	.byte	$02
	.byte	$02
	.byte	$02
	.byte	$02
	.byte	$02
	.byte	$02
	.byte	$02
	.byte	$02
	.byte	$02
	.byte	$02
	.byte	$02
	.byte	$02
	.byte	$02
	.byte	$02
	.byte	$02
	.byte	$02
	.byte	$02
	.byte	$02
	.byte	$02
	.byte	$02
	.byte	$02
	.byte	$02
	.byte	$02
	.byte	$02
	.byte	$02
	.byte	$02
	.byte	$02
	.byte	$02
	.byte	$02
	.byte	$02
	.byte	$02
	.byte	$02
	.byte	$02
	.byte	$02
	.byte	$02
	.byte	$15
	.byte	$15
	.byte	$15
	.byte	$15
	.byte	$15
	.byte	$15
	.byte	$15
	.byte	$15
	.byte	$15
	.byte	$15
	.byte	$15
	.byte	$15
	.byte	$15
	.byte	$15
	.byte	$15
	.byte	$15
_Level4_3:
	.byte	$15
	.byte	$15
	.byte	$15
	.byte	$15
	.byte	$15
	.byte	$15
	.byte	$15
	.byte	$15
	.byte	$15
	.byte	$15
	.byte	$15
	.byte	$15
	.byte	$15
	.byte	$15
	.byte	$15
	.byte	$15
	.byte	$06
	.byte	$06
	.byte	$06
	.byte	$06
	.byte	$06
	.byte	$06
	.byte	$06
	.byte	$06
	.byte	$06
	.byte	$06
	.byte	$0D
	.byte	$0D
	.byte	$0D
	.byte	$0D
	.byte	$06
	.byte	$06
	.byte	$06
	.byte	$06
	.byte	$05
	.byte	$05
	.byte	$05
	.byte	$05
	.byte	$06
	.byte	$06
	.byte	$06
	.byte	$06
	.byte	$0D
	.byte	$0D
	.byte	$0D
	.byte	$0D
	.byte	$06
	.byte	$06
	.byte	$06
	.byte	$06
	.byte	$05
	.byte	$16
	.byte	$16
	.byte	$05
	.byte	$06
	.byte	$06
	.byte	$06
	.byte	$06
	.byte	$0D
	.byte	$0D
	.byte	$0D
	.byte	$0D
	.byte	$06
	.byte	$06
	.byte	$06
	.byte	$06
	.byte	$05
	.byte	$05
	.byte	$05
	.byte	$05
	.byte	$06
	.byte	$06
	.byte	$06
	.byte	$06
	.byte	$0D
	.byte	$0D
	.byte	$0D
	.byte	$0D
	.byte	$06
	.byte	$06
	.byte	$15
	.byte	$15
	.byte	$15
	.byte	$15
	.byte	$15
	.byte	$15
	.byte	$15
	.byte	$15
	.byte	$06
	.byte	$06
	.byte	$0D
	.byte	$0D
	.byte	$0D
	.byte	$0D
	.byte	$06
	.byte	$06
	.byte	$15
	.byte	$15
	.byte	$15
	.byte	$15
	.byte	$15
	.byte	$15
	.byte	$15
	.byte	$15
	.byte	$06
	.byte	$06
	.byte	$0D
	.byte	$0D
	.byte	$0D
	.byte	$0D
	.byte	$06
	.byte	$06
	.byte	$02
	.byte	$02
	.byte	$02
	.byte	$02
	.byte	$02
	.byte	$02
	.byte	$02
	.byte	$02
	.byte	$02
	.byte	$02
	.byte	$02
	.byte	$02
	.byte	$02
	.byte	$02
	.byte	$02
	.byte	$02
	.byte	$02
	.byte	$02
	.byte	$02
	.byte	$02
	.byte	$02
	.byte	$02
	.byte	$02
	.byte	$02
	.byte	$02
	.byte	$02
	.byte	$02
	.byte	$02
	.byte	$02
	.byte	$02
	.byte	$02
	.byte	$02
	.byte	$02
	.byte	$02
	.byte	$02
	.byte	$02
	.byte	$02
	.byte	$02
	.byte	$02
	.byte	$02
	.byte	$02
	.byte	$02
	.byte	$02
	.byte	$02
	.byte	$02
	.byte	$02
	.byte	$02
	.byte	$02
	.byte	$02
	.byte	$02
	.byte	$02
	.byte	$02
	.byte	$02
	.byte	$02
	.byte	$02
	.byte	$02
	.byte	$02
	.byte	$02
	.byte	$02
	.byte	$02
	.byte	$02
	.byte	$02
	.byte	$02
	.byte	$02
	.byte	$02
	.byte	$02
	.byte	$02
	.byte	$02
	.byte	$02
	.byte	$02
	.byte	$02
	.byte	$02
	.byte	$02
	.byte	$02
	.byte	$02
	.byte	$02
	.byte	$02
	.byte	$02
	.byte	$02
	.byte	$02
	.byte	$02
	.byte	$02
	.byte	$02
	.byte	$02
	.byte	$02
	.byte	$02
	.byte	$02
	.byte	$02
	.byte	$02
	.byte	$02
	.byte	$02
	.byte	$02
	.byte	$02
	.byte	$02
	.byte	$02
	.byte	$02
	.byte	$02
	.byte	$02
	.byte	$02
	.byte	$02
	.byte	$02
	.byte	$02
	.byte	$02
	.byte	$02
	.byte	$02
	.byte	$02
	.byte	$02
	.byte	$02
	.byte	$02
	.byte	$02
	.byte	$02
	.byte	$02
	.byte	$15
	.byte	$15
	.byte	$15
	.byte	$15
	.byte	$15
	.byte	$15
	.byte	$15
	.byte	$15
	.byte	$15
	.byte	$15
	.byte	$15
	.byte	$15
	.byte	$15
	.byte	$15
	.byte	$15
	.byte	$15
_Level4_4:
	.byte	$15
	.byte	$15
	.byte	$15
	.byte	$15
	.byte	$15
	.byte	$15
	.byte	$15
	.byte	$15
	.byte	$15
	.byte	$15
	.byte	$15
	.byte	$15
	.byte	$15
	.byte	$15
	.byte	$15
	.byte	$15
	.byte	$06
	.byte	$06
	.byte	$06
	.byte	$06
	.byte	$06
	.byte	$06
	.byte	$06
	.byte	$06
	.byte	$06
	.byte	$06
	.byte	$0D
	.byte	$0D
	.byte	$0D
	.byte	$0D
	.byte	$06
	.byte	$06
	.byte	$06
	.byte	$06
	.byte	$06
	.byte	$05
	.byte	$05
	.byte	$05
	.byte	$06
	.byte	$06
	.byte	$06
	.byte	$06
	.byte	$0D
	.byte	$0D
	.byte	$0D
	.byte	$0D
	.byte	$06
	.byte	$06
	.byte	$06
	.byte	$06
	.byte	$06
	.byte	$05
	.byte	$0E
	.byte	$05
	.byte	$06
	.byte	$06
	.byte	$06
	.byte	$06
	.byte	$0D
	.byte	$0D
	.byte	$0D
	.byte	$0D
	.byte	$06
	.byte	$06
	.byte	$06
	.byte	$06
	.byte	$06
	.byte	$05
	.byte	$05
	.byte	$05
	.byte	$06
	.byte	$06
	.byte	$06
	.byte	$06
	.byte	$0D
	.byte	$0D
	.byte	$0D
	.byte	$0D
	.byte	$06
	.byte	$06
	.byte	$06
	.byte	$06
	.byte	$06
	.byte	$15
	.byte	$15
	.byte	$15
	.byte	$06
	.byte	$06
	.byte	$06
	.byte	$06
	.byte	$0D
	.byte	$0D
	.byte	$0D
	.byte	$0D
	.byte	$06
	.byte	$06
	.byte	$06
	.byte	$06
	.byte	$06
	.byte	$15
	.byte	$15
	.byte	$15
	.byte	$06
	.byte	$06
	.byte	$06
	.byte	$06
	.byte	$0D
	.byte	$0D
	.byte	$0D
	.byte	$0D
	.byte	$06
	.byte	$06
	.byte	$02
	.byte	$02
	.byte	$02
	.byte	$02
	.byte	$02
	.byte	$02
	.byte	$02
	.byte	$02
	.byte	$02
	.byte	$02
	.byte	$02
	.byte	$02
	.byte	$02
	.byte	$02
	.byte	$02
	.byte	$02
	.byte	$02
	.byte	$02
	.byte	$02
	.byte	$02
	.byte	$02
	.byte	$02
	.byte	$02
	.byte	$02
	.byte	$02
	.byte	$02
	.byte	$02
	.byte	$02
	.byte	$02
	.byte	$02
	.byte	$02
	.byte	$02
	.byte	$02
	.byte	$02
	.byte	$02
	.byte	$02
	.byte	$02
	.byte	$02
	.byte	$02
	.byte	$02
	.byte	$02
	.byte	$02
	.byte	$02
	.byte	$02
	.byte	$02
	.byte	$02
	.byte	$02
	.byte	$02
	.byte	$02
	.byte	$02
	.byte	$02
	.byte	$02
	.byte	$02
	.byte	$02
	.byte	$02
	.byte	$02
	.byte	$02
	.byte	$02
	.byte	$02
	.byte	$02
	.byte	$02
	.byte	$02
	.byte	$02
	.byte	$02
	.byte	$02
	.byte	$02
	.byte	$02
	.byte	$02
	.byte	$02
	.byte	$02
	.byte	$02
	.byte	$02
	.byte	$02
	.byte	$02
	.byte	$02
	.byte	$02
	.byte	$02
	.byte	$02
	.byte	$02
	.byte	$02
	.byte	$02
	.byte	$02
	.byte	$02
	.byte	$02
	.byte	$02
	.byte	$02
	.byte	$02
	.byte	$02
	.byte	$02
	.byte	$02
	.byte	$02
	.byte	$02
	.byte	$02
	.byte	$02
	.byte	$02
	.byte	$02
	.byte	$02
	.byte	$02
	.byte	$02
	.byte	$02
	.byte	$02
	.byte	$02
	.byte	$02
	.byte	$02
	.byte	$02
	.byte	$02
	.byte	$02
	.byte	$02
	.byte	$02
	.byte	$02
	.byte	$02
	.byte	$02
	.byte	$15
	.byte	$15
	.byte	$15
	.byte	$15
	.byte	$15
	.byte	$15
	.byte	$15
	.byte	$15
	.byte	$15
	.byte	$15
	.byte	$15
	.byte	$15
	.byte	$15
	.byte	$15
	.byte	$15
	.byte	$15
_Level4_5:
	.byte	$15
	.byte	$15
	.byte	$15
	.byte	$15
	.byte	$15
	.byte	$15
	.byte	$15
	.byte	$15
	.byte	$15
	.byte	$15
	.byte	$15
	.byte	$15
	.byte	$15
	.byte	$15
	.byte	$15
	.byte	$15
	.byte	$06
	.byte	$06
	.byte	$06
	.byte	$06
	.byte	$06
	.byte	$06
	.byte	$06
	.byte	$06
	.byte	$06
	.byte	$06
	.byte	$0D
	.byte	$0D
	.byte	$0D
	.byte	$0D
	.byte	$06
	.byte	$06
	.byte	$06
	.byte	$06
	.byte	$05
	.byte	$05
	.byte	$05
	.byte	$05
	.byte	$06
	.byte	$06
	.byte	$06
	.byte	$06
	.byte	$0D
	.byte	$0D
	.byte	$0D
	.byte	$0D
	.byte	$06
	.byte	$06
	.byte	$06
	.byte	$06
	.byte	$05
	.byte	$0B
	.byte	$0B
	.byte	$05
	.byte	$06
	.byte	$06
	.byte	$06
	.byte	$06
	.byte	$0D
	.byte	$0D
	.byte	$0D
	.byte	$0D
	.byte	$06
	.byte	$06
	.byte	$06
	.byte	$06
	.byte	$05
	.byte	$05
	.byte	$05
	.byte	$05
	.byte	$06
	.byte	$06
	.byte	$06
	.byte	$06
	.byte	$0D
	.byte	$0D
	.byte	$0D
	.byte	$0D
	.byte	$06
	.byte	$06
	.byte	$06
	.byte	$06
	.byte	$06
	.byte	$15
	.byte	$15
	.byte	$06
	.byte	$06
	.byte	$06
	.byte	$06
	.byte	$06
	.byte	$0D
	.byte	$0D
	.byte	$0D
	.byte	$0D
	.byte	$06
	.byte	$06
	.byte	$06
	.byte	$06
	.byte	$06
	.byte	$15
	.byte	$15
	.byte	$06
	.byte	$06
	.byte	$06
	.byte	$06
	.byte	$06
	.byte	$0D
	.byte	$0D
	.byte	$0D
	.byte	$0D
	.byte	$06
	.byte	$06
	.byte	$02
	.byte	$02
	.byte	$02
	.byte	$02
	.byte	$02
	.byte	$02
	.byte	$02
	.byte	$02
	.byte	$02
	.byte	$02
	.byte	$02
	.byte	$02
	.byte	$02
	.byte	$02
	.byte	$02
	.byte	$02
	.byte	$02
	.byte	$02
	.byte	$02
	.byte	$02
	.byte	$02
	.byte	$02
	.byte	$02
	.byte	$02
	.byte	$02
	.byte	$02
	.byte	$02
	.byte	$02
	.byte	$02
	.byte	$02
	.byte	$02
	.byte	$02
	.byte	$02
	.byte	$02
	.byte	$02
	.byte	$02
	.byte	$02
	.byte	$02
	.byte	$02
	.byte	$02
	.byte	$02
	.byte	$02
	.byte	$02
	.byte	$02
	.byte	$02
	.byte	$02
	.byte	$02
	.byte	$02
	.byte	$02
	.byte	$02
	.byte	$02
	.byte	$02
	.byte	$02
	.byte	$02
	.byte	$02
	.byte	$02
	.byte	$02
	.byte	$02
	.byte	$02
	.byte	$02
	.byte	$02
	.byte	$02
	.byte	$02
	.byte	$02
	.byte	$02
	.byte	$02
	.byte	$02
	.byte	$02
	.byte	$02
	.byte	$02
	.byte	$02
	.byte	$02
	.byte	$02
	.byte	$02
	.byte	$02
	.byte	$02
	.byte	$02
	.byte	$02
	.byte	$02
	.byte	$02
	.byte	$02
	.byte	$02
	.byte	$02
	.byte	$02
	.byte	$02
	.byte	$02
	.byte	$02
	.byte	$02
	.byte	$02
	.byte	$02
	.byte	$02
	.byte	$02
	.byte	$02
	.byte	$02
	.byte	$02
	.byte	$02
	.byte	$02
	.byte	$02
	.byte	$02
	.byte	$02
	.byte	$02
	.byte	$02
	.byte	$02
	.byte	$02
	.byte	$02
	.byte	$02
	.byte	$02
	.byte	$02
	.byte	$02
	.byte	$02
	.byte	$02
	.byte	$02
	.byte	$15
	.byte	$15
	.byte	$15
	.byte	$15
	.byte	$15
	.byte	$15
	.byte	$15
	.byte	$15
	.byte	$15
	.byte	$15
	.byte	$15
	.byte	$15
	.byte	$15
	.byte	$15
	.byte	$15
	.byte	$15
_Level4_6:
	.byte	$15
	.byte	$15
	.byte	$15
	.byte	$15
	.byte	$15
	.byte	$15
	.byte	$15
	.byte	$15
	.byte	$15
	.byte	$15
	.byte	$15
	.byte	$15
	.byte	$15
	.byte	$15
	.byte	$15
	.byte	$15
	.byte	$06
	.byte	$06
	.byte	$06
	.byte	$06
	.byte	$06
	.byte	$06
	.byte	$06
	.byte	$06
	.byte	$06
	.byte	$06
	.byte	$06
	.byte	$06
	.byte	$06
	.byte	$06
	.byte	$0D
	.byte	$0D
	.byte	$06
	.byte	$06
	.byte	$06
	.byte	$05
	.byte	$05
	.byte	$05
	.byte	$05
	.byte	$05
	.byte	$06
	.byte	$06
	.byte	$06
	.byte	$06
	.byte	$06
	.byte	$06
	.byte	$0D
	.byte	$0D
	.byte	$06
	.byte	$06
	.byte	$06
	.byte	$05
	.byte	$0C
	.byte	$0C
	.byte	$0C
	.byte	$05
	.byte	$06
	.byte	$06
	.byte	$06
	.byte	$06
	.byte	$06
	.byte	$06
	.byte	$0D
	.byte	$0D
	.byte	$06
	.byte	$06
	.byte	$06
	.byte	$05
	.byte	$05
	.byte	$05
	.byte	$05
	.byte	$05
	.byte	$06
	.byte	$06
	.byte	$06
	.byte	$06
	.byte	$06
	.byte	$06
	.byte	$0D
	.byte	$0D
	.byte	$06
	.byte	$06
	.byte	$15
	.byte	$15
	.byte	$15
	.byte	$15
	.byte	$15
	.byte	$15
	.byte	$15
	.byte	$15
	.byte	$06
	.byte	$06
	.byte	$06
	.byte	$06
	.byte	$0D
	.byte	$0D
	.byte	$06
	.byte	$06
	.byte	$15
	.byte	$15
	.byte	$15
	.byte	$15
	.byte	$15
	.byte	$15
	.byte	$15
	.byte	$15
	.byte	$06
	.byte	$06
	.byte	$06
	.byte	$06
	.byte	$0D
	.byte	$0D
	.byte	$02
	.byte	$02
	.byte	$02
	.byte	$02
	.byte	$02
	.byte	$02
	.byte	$02
	.byte	$02
	.byte	$02
	.byte	$02
	.byte	$02
	.byte	$02
	.byte	$02
	.byte	$02
	.byte	$02
	.byte	$02
	.byte	$02
	.byte	$02
	.byte	$02
	.byte	$02
	.byte	$02
	.byte	$02
	.byte	$02
	.byte	$02
	.byte	$02
	.byte	$02
	.byte	$02
	.byte	$02
	.byte	$02
	.byte	$02
	.byte	$02
	.byte	$02
	.byte	$02
	.byte	$02
	.byte	$02
	.byte	$02
	.byte	$02
	.byte	$02
	.byte	$02
	.byte	$02
	.byte	$02
	.byte	$02
	.byte	$02
	.byte	$02
	.byte	$02
	.byte	$02
	.byte	$02
	.byte	$02
	.byte	$02
	.byte	$02
	.byte	$02
	.byte	$02
	.byte	$02
	.byte	$02
	.byte	$02
	.byte	$02
	.byte	$02
	.byte	$02
	.byte	$02
	.byte	$02
	.byte	$02
	.byte	$02
	.byte	$02
	.byte	$02
	.byte	$02
	.byte	$02
	.byte	$02
	.byte	$02
	.byte	$02
	.byte	$02
	.byte	$02
	.byte	$02
	.byte	$02
	.byte	$02
	.byte	$02
	.byte	$02
	.byte	$02
	.byte	$02
	.byte	$02
	.byte	$02
	.byte	$02
	.byte	$02
	.byte	$02
	.byte	$02
	.byte	$02
	.byte	$02
	.byte	$02
	.byte	$02
	.byte	$02
	.byte	$02
	.byte	$02
	.byte	$02
	.byte	$02
	.byte	$02
	.byte	$02
	.byte	$02
	.byte	$02
	.byte	$02
	.byte	$02
	.byte	$02
	.byte	$02
	.byte	$02
	.byte	$02
	.byte	$02
	.byte	$02
	.byte	$02
	.byte	$02
	.byte	$02
	.byte	$02
	.byte	$02
	.byte	$02
	.byte	$02
	.byte	$15
	.byte	$15
	.byte	$15
	.byte	$15
	.byte	$15
	.byte	$15
	.byte	$15
	.byte	$15
	.byte	$15
	.byte	$15
	.byte	$15
	.byte	$15
	.byte	$15
	.byte	$15
	.byte	$15
	.byte	$15
_Level4_7:
	.byte	$15
	.byte	$15
	.byte	$15
	.byte	$15
	.byte	$15
	.byte	$15
	.byte	$15
	.byte	$15
	.byte	$15
	.byte	$15
	.byte	$15
	.byte	$15
	.byte	$15
	.byte	$15
	.byte	$15
	.byte	$15
	.byte	$0D
	.byte	$0D
	.byte	$06
	.byte	$06
	.byte	$06
	.byte	$06
	.byte	$06
	.byte	$06
	.byte	$06
	.byte	$06
	.byte	$0D
	.byte	$0D
	.byte	$0D
	.byte	$0D
	.byte	$06
	.byte	$06
	.byte	$0D
	.byte	$0D
	.byte	$06
	.byte	$06
	.byte	$05
	.byte	$05
	.byte	$05
	.byte	$05
	.byte	$06
	.byte	$06
	.byte	$0D
	.byte	$0D
	.byte	$0D
	.byte	$0D
	.byte	$06
	.byte	$06
	.byte	$0D
	.byte	$0D
	.byte	$06
	.byte	$06
	.byte	$05
	.byte	$03
	.byte	$03
	.byte	$05
	.byte	$06
	.byte	$06
	.byte	$0D
	.byte	$0D
	.byte	$0D
	.byte	$0D
	.byte	$06
	.byte	$06
	.byte	$0D
	.byte	$0D
	.byte	$06
	.byte	$06
	.byte	$05
	.byte	$05
	.byte	$05
	.byte	$05
	.byte	$06
	.byte	$06
	.byte	$0D
	.byte	$0D
	.byte	$0D
	.byte	$0D
	.byte	$06
	.byte	$06
	.byte	$0D
	.byte	$0D
	.byte	$06
	.byte	$06
	.byte	$06
	.byte	$15
	.byte	$15
	.byte	$06
	.byte	$06
	.byte	$06
	.byte	$0D
	.byte	$0D
	.byte	$0D
	.byte	$0D
	.byte	$06
	.byte	$06
	.byte	$0D
	.byte	$0D
	.byte	$06
	.byte	$06
	.byte	$06
	.byte	$15
	.byte	$15
	.byte	$06
	.byte	$06
	.byte	$06
	.byte	$0D
	.byte	$0D
	.byte	$0D
	.byte	$0D
	.byte	$06
	.byte	$06
	.byte	$02
	.byte	$02
	.byte	$02
	.byte	$02
	.byte	$02
	.byte	$02
	.byte	$02
	.byte	$02
	.byte	$02
	.byte	$02
	.byte	$02
	.byte	$02
	.byte	$02
	.byte	$02
	.byte	$02
	.byte	$02
	.byte	$02
	.byte	$02
	.byte	$02
	.byte	$02
	.byte	$02
	.byte	$02
	.byte	$02
	.byte	$02
	.byte	$02
	.byte	$02
	.byte	$02
	.byte	$02
	.byte	$02
	.byte	$02
	.byte	$02
	.byte	$02
	.byte	$02
	.byte	$02
	.byte	$02
	.byte	$02
	.byte	$02
	.byte	$02
	.byte	$02
	.byte	$02
	.byte	$02
	.byte	$02
	.byte	$02
	.byte	$02
	.byte	$02
	.byte	$02
	.byte	$02
	.byte	$02
	.byte	$02
	.byte	$02
	.byte	$02
	.byte	$02
	.byte	$02
	.byte	$02
	.byte	$02
	.byte	$02
	.byte	$02
	.byte	$02
	.byte	$02
	.byte	$02
	.byte	$02
	.byte	$02
	.byte	$02
	.byte	$02
	.byte	$02
	.byte	$02
	.byte	$02
	.byte	$02
	.byte	$02
	.byte	$02
	.byte	$02
	.byte	$02
	.byte	$02
	.byte	$02
	.byte	$02
	.byte	$02
	.byte	$02
	.byte	$02
	.byte	$02
	.byte	$02
	.byte	$02
	.byte	$02
	.byte	$02
	.byte	$02
	.byte	$02
	.byte	$02
	.byte	$02
	.byte	$02
	.byte	$02
	.byte	$02
	.byte	$02
	.byte	$02
	.byte	$02
	.byte	$02
	.byte	$02
	.byte	$02
	.byte	$02
	.byte	$02
	.byte	$02
	.byte	$02
	.byte	$02
	.byte	$02
	.byte	$02
	.byte	$02
	.byte	$02
	.byte	$02
	.byte	$02
	.byte	$02
	.byte	$02
	.byte	$02
	.byte	$02
	.byte	$02
	.byte	$15
	.byte	$15
	.byte	$15
	.byte	$15
	.byte	$15
	.byte	$15
	.byte	$15
	.byte	$15
	.byte	$15
	.byte	$15
	.byte	$15
	.byte	$15
	.byte	$15
	.byte	$15
	.byte	$15
	.byte	$15
_Level4_8:
	.byte	$15
	.byte	$15
	.byte	$15
	.byte	$15
	.byte	$15
	.byte	$15
	.byte	$15
	.byte	$15
	.byte	$15
	.byte	$15
	.byte	$15
	.byte	$15
	.byte	$15
	.byte	$15
	.byte	$15
	.byte	$15
	.byte	$06
	.byte	$06
	.byte	$06
	.byte	$06
	.byte	$06
	.byte	$06
	.byte	$06
	.byte	$06
	.byte	$0D
	.byte	$0D
	.byte	$0D
	.byte	$0D
	.byte	$06
	.byte	$06
	.byte	$06
	.byte	$06
	.byte	$06
	.byte	$05
	.byte	$05
	.byte	$05
	.byte	$06
	.byte	$06
	.byte	$06
	.byte	$06
	.byte	$0D
	.byte	$0D
	.byte	$0D
	.byte	$0D
	.byte	$06
	.byte	$06
	.byte	$06
	.byte	$06
	.byte	$06
	.byte	$05
	.byte	$02
	.byte	$05
	.byte	$06
	.byte	$06
	.byte	$06
	.byte	$06
	.byte	$0D
	.byte	$0D
	.byte	$0D
	.byte	$0D
	.byte	$06
	.byte	$06
	.byte	$06
	.byte	$06
	.byte	$06
	.byte	$05
	.byte	$05
	.byte	$05
	.byte	$06
	.byte	$06
	.byte	$06
	.byte	$06
	.byte	$0D
	.byte	$0D
	.byte	$0D
	.byte	$0D
	.byte	$06
	.byte	$06
	.byte	$06
	.byte	$06
	.byte	$06
	.byte	$15
	.byte	$15
	.byte	$15
	.byte	$15
	.byte	$06
	.byte	$06
	.byte	$06
	.byte	$0D
	.byte	$0D
	.byte	$0D
	.byte	$0D
	.byte	$06
	.byte	$06
	.byte	$06
	.byte	$06
	.byte	$06
	.byte	$15
	.byte	$15
	.byte	$15
	.byte	$15
	.byte	$06
	.byte	$06
	.byte	$06
	.byte	$0D
	.byte	$0D
	.byte	$0D
	.byte	$0D
	.byte	$06
	.byte	$06
	.byte	$06
	.byte	$06
	.byte	$02
	.byte	$02
	.byte	$02
	.byte	$02
	.byte	$02
	.byte	$02
	.byte	$02
	.byte	$02
	.byte	$02
	.byte	$02
	.byte	$02
	.byte	$02
	.byte	$02
	.byte	$02
	.byte	$02
	.byte	$02
	.byte	$02
	.byte	$02
	.byte	$02
	.byte	$02
	.byte	$02
	.byte	$02
	.byte	$02
	.byte	$02
	.byte	$02
	.byte	$02
	.byte	$02
	.byte	$02
	.byte	$02
	.byte	$02
	.byte	$02
	.byte	$02
	.byte	$02
	.byte	$02
	.byte	$02
	.byte	$02
	.byte	$02
	.byte	$02
	.byte	$02
	.byte	$02
	.byte	$02
	.byte	$02
	.byte	$02
	.byte	$02
	.byte	$02
	.byte	$02
	.byte	$02
	.byte	$02
	.byte	$02
	.byte	$02
	.byte	$02
	.byte	$02
	.byte	$02
	.byte	$02
	.byte	$02
	.byte	$02
	.byte	$02
	.byte	$02
	.byte	$02
	.byte	$02
	.byte	$02
	.byte	$02
	.byte	$02
	.byte	$02
	.byte	$02
	.byte	$02
	.byte	$02
	.byte	$02
	.byte	$02
	.byte	$02
	.byte	$02
	.byte	$02
	.byte	$02
	.byte	$02
	.byte	$02
	.byte	$02
	.byte	$02
	.byte	$02
	.byte	$02
	.byte	$02
	.byte	$02
	.byte	$02
	.byte	$02
	.byte	$02
	.byte	$02
	.byte	$02
	.byte	$02
	.byte	$02
	.byte	$02
	.byte	$02
	.byte	$02
	.byte	$02
	.byte	$02
	.byte	$02
	.byte	$02
	.byte	$02
	.byte	$02
	.byte	$02
	.byte	$02
	.byte	$02
	.byte	$02
	.byte	$02
	.byte	$02
	.byte	$02
	.byte	$02
	.byte	$02
	.byte	$02
	.byte	$02
	.byte	$02
	.byte	$02
	.byte	$02
	.byte	$02
	.byte	$15
	.byte	$15
	.byte	$15
	.byte	$15
	.byte	$15
	.byte	$15
	.byte	$15
	.byte	$15
	.byte	$15
	.byte	$15
	.byte	$15
	.byte	$15
	.byte	$15
	.byte	$15
	.byte	$15
	.byte	$15
_Level4_9:
	.byte	$15
	.byte	$15
	.byte	$15
	.byte	$15
	.byte	$15
	.byte	$15
	.byte	$15
	.byte	$15
	.byte	$15
	.byte	$15
	.byte	$15
	.byte	$15
	.byte	$15
	.byte	$15
	.byte	$15
	.byte	$15
	.byte	$06
	.byte	$06
	.byte	$06
	.byte	$06
	.byte	$06
	.byte	$06
	.byte	$06
	.byte	$06
	.byte	$06
	.byte	$0D
	.byte	$0D
	.byte	$0D
	.byte	$0D
	.byte	$06
	.byte	$06
	.byte	$15
	.byte	$06
	.byte	$05
	.byte	$05
	.byte	$05
	.byte	$06
	.byte	$06
	.byte	$06
	.byte	$06
	.byte	$06
	.byte	$0D
	.byte	$0D
	.byte	$0D
	.byte	$0D
	.byte	$06
	.byte	$06
	.byte	$15
	.byte	$06
	.byte	$05
	.byte	$08
	.byte	$05
	.byte	$06
	.byte	$06
	.byte	$06
	.byte	$06
	.byte	$06
	.byte	$0D
	.byte	$0D
	.byte	$0D
	.byte	$0D
	.byte	$06
	.byte	$06
	.byte	$15
	.byte	$06
	.byte	$05
	.byte	$05
	.byte	$05
	.byte	$06
	.byte	$06
	.byte	$06
	.byte	$06
	.byte	$06
	.byte	$0D
	.byte	$0D
	.byte	$0D
	.byte	$0D
	.byte	$06
	.byte	$06
	.byte	$15
	.byte	$15
	.byte	$15
	.byte	$15
	.byte	$15
	.byte	$15
	.byte	$06
	.byte	$06
	.byte	$06
	.byte	$06
	.byte	$0D
	.byte	$0D
	.byte	$0D
	.byte	$0D
	.byte	$06
	.byte	$06
	.byte	$15
	.byte	$15
	.byte	$15
	.byte	$15
	.byte	$15
	.byte	$15
	.byte	$06
	.byte	$06
	.byte	$06
	.byte	$06
	.byte	$0D
	.byte	$0D
	.byte	$0D
	.byte	$0D
	.byte	$06
	.byte	$06
	.byte	$15
	.byte	$02
	.byte	$02
	.byte	$02
	.byte	$02
	.byte	$02
	.byte	$02
	.byte	$02
	.byte	$02
	.byte	$02
	.byte	$02
	.byte	$02
	.byte	$02
	.byte	$02
	.byte	$02
	.byte	$02
	.byte	$15
	.byte	$02
	.byte	$02
	.byte	$02
	.byte	$02
	.byte	$02
	.byte	$02
	.byte	$02
	.byte	$02
	.byte	$02
	.byte	$02
	.byte	$02
	.byte	$02
	.byte	$02
	.byte	$02
	.byte	$02
	.byte	$15
	.byte	$02
	.byte	$02
	.byte	$02
	.byte	$02
	.byte	$02
	.byte	$02
	.byte	$02
	.byte	$02
	.byte	$02
	.byte	$02
	.byte	$02
	.byte	$02
	.byte	$02
	.byte	$02
	.byte	$02
	.byte	$15
	.byte	$02
	.byte	$02
	.byte	$02
	.byte	$02
	.byte	$02
	.byte	$02
	.byte	$02
	.byte	$02
	.byte	$02
	.byte	$02
	.byte	$02
	.byte	$02
	.byte	$02
	.byte	$02
	.byte	$02
	.byte	$15
	.byte	$02
	.byte	$02
	.byte	$02
	.byte	$02
	.byte	$02
	.byte	$02
	.byte	$02
	.byte	$02
	.byte	$02
	.byte	$02
	.byte	$02
	.byte	$02
	.byte	$02
	.byte	$02
	.byte	$02
	.byte	$15
	.byte	$02
	.byte	$02
	.byte	$02
	.byte	$02
	.byte	$02
	.byte	$02
	.byte	$02
	.byte	$02
	.byte	$02
	.byte	$02
	.byte	$02
	.byte	$02
	.byte	$02
	.byte	$02
	.byte	$02
	.byte	$15
	.byte	$02
	.byte	$02
	.byte	$02
	.byte	$02
	.byte	$02
	.byte	$02
	.byte	$02
	.byte	$02
	.byte	$02
	.byte	$02
	.byte	$02
	.byte	$02
	.byte	$02
	.byte	$02
	.byte	$02
	.byte	$15
	.byte	$15
	.byte	$15
	.byte	$15
	.byte	$15
	.byte	$15
	.byte	$15
	.byte	$15
	.byte	$15
	.byte	$15
	.byte	$15
	.byte	$15
	.byte	$15
	.byte	$15
	.byte	$15
	.byte	$15
	.byte	$15
_Level4_list:
	.addr	_Level4_0
	.addr	_Level4_1
	.addr	_Level4_2
	.addr	_Level4_3
	.addr	_Level4_4
	.addr	_Level4_5
	.addr	_Level4_6
	.addr	_Level4_7
	.addr	_Level4_8
	.addr	_Level4_9
_Levels_list:
	.addr	_Level1_0
	.addr	_Level1_1
	.addr	_Level1_2
	.addr	_Level1_3
	.addr	_Level1_4
	.addr	_Level1_5
	.addr	_Level1_6
	.addr	_Level1_7
	.addr	_Level2_0
	.addr	_Level2_1
	.addr	_Level2_2
	.addr	_Level2_3
	.addr	_Level2_4
	.addr	_Level2_5
	.addr	_Level2_6
	.addr	_Level2_7
	.addr	_Level3_0
	.addr	_Level3_1
	.addr	_Level3_2
	.addr	_Level3_3
	.addr	_Level3_4
	.addr	_Level3_5
	.addr	_Level3_6
	.addr	_Level3_7
	.addr	_Level4_0
	.addr	_Level4_1
	.addr	_Level4_2
	.addr	_Level4_3
	.addr	_Level4_4
	.addr	_Level4_5
	.addr	_Level4_6
	.addr	_Level4_7
_Level_offsets:
	.byte	$00
	.byte	$08
	.byte	$10
	.byte	$18

.segment	"BSS"

.segment	"ZEROPAGE"
_pad1:
	.res	1,$00
_pad1_new:
	.res	1,$00
_collision:
	.res	1,$00
_collision_L:
	.res	1,$00
_collision_R:
	.res	1,$00
_collision_U:
	.res	1,$00
_collision_D:
	.res	1,$00
_coordinates:
	.res	1,$00
_temp1:
	.res	1,$00
_temp2:
	.res	1,$00
_temp3:
	.res	1,$00
_temp4:
	.res	1,$00
_temp5:
	.res	2,$00
_temp6:
	.res	2,$00
_ind:
	.res	2,$00
_eject_L:
	.res	1,$00
_eject_R:
	.res	1,$00
_eject_D:
	.res	1,$00
_eject_U:
	.res	1,$00
_direction:
	.res	1,$00
_address:
	.res	2,$00
_x:
	.res	1,$00
_y:
	.res	1,$00
_nt:
	.res	1,$00
_index:
	.res	1,$00
_index2:
	.res	1,$00
_room:
	.res	1,$00
_map:
	.res	1,$00
_scroll_x:
	.res	2,$00
_scroll_y:
	.res	2,$00
_scroll_count:
	.res	1,$00
_pseudo_scroll_x:
	.res	2,$00
_L_R_switch:
	.res	1,$00
_old_x:
	.res	1,$00
_old_y:
	.res	1,$00
_temp_x:
	.res	1,$00
_temp_y:
	.res	1,$00
_song:
	.res	1,$00
_game_mode:
	.res	1,$00
_coins:
	.res	1,$00
_lives:
	.res	1,$00
_pointer:
	.res	2,$00
_level:
	.res	1,$00
_offset:
	.res	1,$00
_level_up:
	.res	1,$00
_bright:
	.res	1,$00
_bright_count:
	.res	1,$00
_death:
	.res	1,$00
_order:
	.res	1,$00
_order1:
	.res	1,$00
_timer:
	.res	1,$00
_enemy_frames:
	.res	1,$00
_map_loaded:
	.res	1,$00
_short_jump_count:
	.res	1,$00
.segment	"BSS"
_c_map:
	.res	240,$00
_c_map2:
	.res	240,$00
_Generic:
	.res	4,$00
_Generic2:
	.res	4,$00
_BoxGuy1:
	.res	8,$00
_coin_x:
	.res	10,$00
_coin_y:
	.res	10,$00
_coin_active:
	.res	10,$00
_coin_room:
	.res	10,$00
_coin_actual_x:
	.res	10,$00
_coin_type:
	.res	10,$00
_player_special_order:
	.res	10,$00
_player_order:
	.res	10,$00
_enemy_x:
	.res	16,$00
_enemy_y:
	.res	16,$00
_enemy_active:
	.res	16,$00
_enemy_room:
	.res	16,$00
_enemy_actual_x:
	.res	16,$00
_enemy_type:
	.res	16,$00
_enemy_anim:
	.res	32,$00

; ---------------------------------------------------------------
; void __near__ load_title (void)
; ---------------------------------------------------------------

.segment	"CODE"

.proc	_load_title: near

.segment	"CODE"

;
; pal_bg(palette_title);
;
	lda     #<(_palette_title)
	ldx     #>(_palette_title)
	jsr     _pal_bg
;
; pal_spr(palette_sp);
;
	lda     #<(_palette_sp)
	ldx     #>(_palette_sp)
	jsr     _pal_spr
;
; vram_adr(NAMETABLE_A);
;
	ldx     #$20
	lda     #$00
	jsr     _vram_adr
;
; vram_unrle(title);
;
	lda     #<(_title)
	ldx     #>(_title)
	jsr     _vram_unrle
;
; game_mode = MODE_TITLE;
;
	lda     #$00
	sta     _game_mode
;
; }
;
	rts

.endproc

; ---------------------------------------------------------------
; void __near__ reset_special (void)
; ---------------------------------------------------------------

.segment	"CODE"

.proc	_reset_special: near

.segment	"CODE"

;
; for(ind=0;ind<10;ind++)
;
	lda     #$00
	sta     _ind
	sta     _ind+1
L0002:	lda     _ind+1
	cmp     #$00
	bne     L0006
	lda     _ind
	cmp     #$0A
L0006:	bcs     L0003
;
; player_special_order[ind]=0;
;
	lda     _ind
	clc
	adc     #<(_player_special_order)
	sta     ptr1
	lda     _ind+1
	adc     #>(_player_special_order)
	sta     ptr1+1
	lda     #$00
	tay
	sta     (ptr1),y
;
; for(ind=0;ind<10;ind++)
;
	inc     _ind
	bne     L0002
	inc     _ind+1
	jmp     L0002
;
; }
;
L0003:	rts

.endproc

; ---------------------------------------------------------------
; void __near__ reset_ind (void)
; ---------------------------------------------------------------

.segment	"CODE"

.proc	_reset_ind: near

.segment	"CODE"

;
; for(ind=0;ind<10;ind++)
;
	lda     #$00
	sta     _ind
	sta     _ind+1
L0002:	lda     _ind+1
	cmp     #$00
	bne     L0006
	lda     _ind
	cmp     #$0A
L0006:	bcs     L0003
;
; player_order[ind]=0;
;
	lda     _ind
	clc
	adc     #<(_player_order)
	sta     ptr1
	lda     _ind+1
	adc     #>(_player_order)
	sta     ptr1+1
	lda     #$00
	tay
	sta     (ptr1),y
;
; for(ind=0;ind<10;ind++)
;
	inc     _ind
	bne     L0002
	inc     _ind+1
	jmp     L0002
;
; }
;
L0003:	rts

.endproc

; ---------------------------------------------------------------
; void __near__ load_room (void)
; ---------------------------------------------------------------

.segment	"CODE"

.proc	_load_room: near

.segment	"CODE"

;
; offset = Level_offsets[level];
;
	ldy     _level
	lda     _Level_offsets,y
	sta     _offset
;
; set_data_pointer(Levels_list[offset]);
;
	ldx     #$00
	lda     _offset
	asl     a
	bcc     L0019
	inx
	clc
L0019:	adc     #<(_Levels_list)
	sta     ptr1
	txa
	adc     #>(_Levels_list)
	sta     ptr1+1
	ldy     #$01
	lda     (ptr1),y
	tax
	dey
	lda     (ptr1),y
	jsr     _set_data_pointer
;
; set_mt_pointer(metatiles1);
;
	lda     #<(_metatiles1)
	ldx     #>(_metatiles1)
	jsr     _set_mt_pointer
;
; for(y=0; ;y+=0x20){ 
;
	lda     #$00
L0017:	sta     _y
;
; for(x=0; ;x+=0x20){
;
	lda     #$00
L0016:	sta     _x
;
; clear_vram_buffer(); // do each frame, and before putting anything in the buffer
;
	jsr     _clear_vram_buffer
;
; address = get_ppu_addr(0, x, y);
;
	jsr     decsp2
	lda     #$00
	ldy     #$01
	sta     (sp),y
	lda     _x
	dey
	sta     (sp),y
	lda     _y
	jsr     _get_ppu_addr
	sta     _address
	stx     _address+1
;
; index = (y & 0xf0) + (x >> 4);
;
	lda     _y
	and     #$F0
	sta     ptr1
	lda     _x
	lsr     a
	lsr     a
	lsr     a
	lsr     a
	clc
	adc     ptr1
	sta     _index
;
; buffer_4_mt(address, index); // ppu_address, index to the data
;
	lda     _address
	ldx     _address+1
	jsr     pushax
	lda     _index
	jsr     _buffer_4_mt
;
; flush_vram_update_nmi();
;
	jsr     _flush_vram_update_nmi
;
; if (x == 0xe0) break;
;
	lda     _x
	cmp     #$E0
	beq     L001C
;
; for(x=0; ;x+=0x20){
;
	lda     #$20
	clc
	adc     _x
	jmp     L0016
;
; if (y == 0xe0) break;
;
L001C:	lda     _y
	cmp     #$E0
	beq     L001D
;
; for(y=0; ;y+=0x20){ 
;
	lda     #$20
	clc
	adc     _y
	jmp     L0017
;
; ++offset;
;
L001D:	inc     _offset
;
; set_data_pointer(Levels_list[offset]);
;
	ldx     #$00
	lda     _offset
	asl     a
	bcc     L001A
	inx
	clc
L001A:	adc     #<(_Levels_list)
	sta     ptr1
	txa
	adc     #>(_Levels_list)
	sta     ptr1+1
	ldy     #$01
	lda     (ptr1),y
	tax
	dey
	lda     (ptr1),y
	jsr     _set_data_pointer
;
; for(y=0; ;y+=0x20){ 
;
	lda     #$00
L0018:	sta     _y
;
; x = 0;
;
	lda     #$00
	sta     _x
;
; clear_vram_buffer(); // do each frame, and before putting anything in the buffer
;
	jsr     _clear_vram_buffer
;
; address = get_ppu_addr(1, x, y);
;
	jsr     decsp2
	lda     #$01
	tay
	sta     (sp),y
	lda     _x
	dey
	sta     (sp),y
	lda     _y
	jsr     _get_ppu_addr
	sta     _address
	stx     _address+1
;
; index = (y & 0xf0);
;
	lda     _y
	and     #$F0
	sta     _index
;
; buffer_4_mt(address, index); // ppu_address, index to the data
;
	lda     _address
	ldx     _address+1
	jsr     pushax
	lda     _index
	jsr     _buffer_4_mt
;
; flush_vram_update_nmi();
;
	jsr     _flush_vram_update_nmi
;
; if (y == 0xe0) break;
;
	lda     _y
	cmp     #$E0
	beq     L000E
;
; for(y=0; ;y+=0x20){ 
;
	lda     #$20
	clc
	adc     _y
	jmp     L0018
;
; clear_vram_buffer();
;
L000E:	jsr     _clear_vram_buffer
;
; --offset;
;
	dec     _offset
;
; memcpy (c_map, Levels_list[offset], 240);
;
	lda     #<(_c_map)
	ldx     #>(_c_map)
	jsr     pushax
	ldx     #$00
	lda     _offset
	asl     a
	bcc     L001B
	inx
	clc
L001B:	adc     #<(_Levels_list)
	sta     ptr1
	txa
	adc     #>(_Levels_list)
	sta     ptr1+1
	ldy     #$01
	lda     (ptr1),y
	tax
	dey
	lda     (ptr1),y
	jsr     pushax
	ldx     #$00
	lda     #$F0
	jsr     _memcpy
;
; sprite_obj_init();
;
	jsr     _sprite_obj_init
;
; BoxGuy1.x = 0x4000;
;
	ldx     #$40
	lda     #$00
	sta     _BoxGuy1
	stx     _BoxGuy1+1
;
; BoxGuy1.y = 0xc400;
;
	ldx     #$C4
	sta     _BoxGuy1+2
	stx     _BoxGuy1+2+1
;
; BoxGuy1.vel_x = 0;
;
	sta     _BoxGuy1+4
	sta     _BoxGuy1+4+1
;
; BoxGuy1.vel_y = 0;
;
	sta     _BoxGuy1+6
	sta     _BoxGuy1+6+1
;
; map_loaded = 0;
;
	sta     _map_loaded
;
; }
;
	rts

.endproc

; ---------------------------------------------------------------
; void __near__ load_room_1 (void)
; ---------------------------------------------------------------

.segment	"CODE"

.proc	_load_room_1: near

.segment	"CODE"

;
; set_data_pointer(Level1_0);
;
	lda     #<(_Level1_0)
	ldx     #>(_Level1_0)
	jsr     _set_data_pointer
;
; set_mt_pointer(metatiles1);
;
	lda     #<(_metatiles1)
	ldx     #>(_metatiles1)
	jsr     _set_mt_pointer
;
; for(y=0; ;y+=0x20){
;
	lda     #$00
L000F:	sta     _y
;
; for(x=0; ;x+=0x20){
;
	lda     #$00
L000E:	sta     _x
;
; clear_vram_buffer(); // do each frame, and before putting anything in the buffer
;
	jsr     _clear_vram_buffer
;
; address = get_ppu_addr(0, x, y);
;
	jsr     decsp2
	lda     #$00
	ldy     #$01
	sta     (sp),y
	lda     _x
	dey
	sta     (sp),y
	lda     _y
	jsr     _get_ppu_addr
	sta     _address
	stx     _address+1
;
; index = (y & 0xf0) + (x >> 4);
;
	lda     _y
	and     #$F0
	sta     ptr1
	lda     _x
	lsr     a
	lsr     a
	lsr     a
	lsr     a
	clc
	adc     ptr1
	sta     _index
;
; buffer_4_mt(address, index); // ppu_address, index to the data
;
	lda     _address
	ldx     _address+1
	jsr     pushax
	lda     _index
	jsr     _buffer_4_mt
;
; flush_vram_update_nmi();
;
	jsr     _flush_vram_update_nmi
;
; if (x == 0xe0) break;
;
	ldx     #$00
	lda     _x
	cmp     #$E0
	beq     L0010
;
; for(x=0; ;x+=0x20){
;
	lda     #$20
	clc
	adc     _x
	jmp     L000E
;
; if (y == 0xe0) break;
;
L0010:	lda     _y
	cmp     #$E0
	beq     L0011
;
; for(y=0; ;y+=0x20){
;
	lda     #$20
	clc
	adc     _y
	jmp     L000F
;
; set_vram_update(NULL); // just turn ppu updates OFF for this example
;
L0011:	txa
	jsr     _set_vram_update
;
; memcpy (c_map, Level1_0, 240);
;
	ldy     #$00
L000C:	lda     _Level1_0,y
	sta     _c_map,y
	iny
	cpy     #$F0
	bne     L000C
;
; sprite_obj_init();
;
	jsr     _sprite_obj_init
;
; BoxGuy1.x = 0x4000;
;
	ldx     #$40
	lda     #$00
	sta     _BoxGuy1
	stx     _BoxGuy1+1
;
; BoxGuy1.y = 0xc400;
;
	ldx     #$C4
	sta     _BoxGuy1+2
	stx     _BoxGuy1+2+1
;
; BoxGuy1.vel_x = 0;
;
	sta     _BoxGuy1+4
	sta     _BoxGuy1+4+1
;
; BoxGuy1.vel_y = 0;
;
	sta     _BoxGuy1+6
	sta     _BoxGuy1+6+1
;
; map_loaded = 0;
;
	sta     _map_loaded
;
; }
;
	rts

.endproc

; ---------------------------------------------------------------
; void __near__ draw_sprites (void)
; ---------------------------------------------------------------

.segment	"CODE"

.proc	_draw_sprites: near

.segment	"CODE"

;
; oam_clear();
;
	jsr     _oam_clear
;
; temp_x = high_byte(BoxGuy1.x);
;
	lda     _BoxGuy1+1
	sta     _temp_x
;
; if(temp_x > 0xfc) temp_x = 1;
;
	cmp     #$FD
	bcc     L002C
	lda     #$01
	sta     _temp_x
;
; if(temp_x == 0) temp_x = 1;
;
L002C:	lda     _temp_x
	bne     L002D
	lda     #$01
	sta     _temp_x
;
; if(direction == LEFT) {
;
L002D:	lda     _direction
	bne     L002E
;
; if(!(pad1 &PAD_A))
;
	lda     _pad1
	and     #$80
	bne     L0005
;
; oam_meta_spr(temp_x, high_byte(BoxGuy1.y), RoundSprL);
;
	jsr     decsp2
	lda     _temp_x
	ldy     #$01
	sta     (sp),y
	lda     _BoxGuy1+3
	dey
	sta     (sp),y
	lda     #<(_RoundSprL)
	ldx     #>(_RoundSprL)
;
; else
;
	jmp     L0029
;
; oam_meta_spr(temp_x, high_byte(BoxGuy1.y), RoundSprAL);
;
L0005:	jsr     decsp2
	lda     _temp_x
	ldy     #$01
	sta     (sp),y
	lda     _BoxGuy1+3
	dey
	sta     (sp),y
	lda     #<(_RoundSprAL)
	ldx     #>(_RoundSprAL)
;
; else{
;
	jmp     L0029
;
; if(!(pad1 &PAD_A))
;
L002E:	lda     _pad1
	and     #$80
	bne     L0008
;
; oam_meta_spr(temp_x, high_byte(BoxGuy1.y), RoundSprR);
;
	jsr     decsp2
	lda     _temp_x
	ldy     #$01
	sta     (sp),y
	lda     _BoxGuy1+3
	dey
	sta     (sp),y
	lda     #<(_RoundSprR)
	ldx     #>(_RoundSprR)
;
; else
;
	jmp     L0029
;
; oam_meta_spr(temp_x, high_byte(BoxGuy1.y), RoundSprAR);
;
L0008:	jsr     decsp2
	lda     _temp_x
	ldy     #$01
	sta     (sp),y
	lda     _BoxGuy1+3
	dey
	sta     (sp),y
	lda     #<(_RoundSprAR)
	ldx     #>(_RoundSprAR)
L0029:	jsr     _oam_meta_spr
;
; for(index = 0; index < MAX_COINS; ++index){
;
	lda     #$00
	sta     _index
L002F:	lda     _index
	cmp     #$0A
	bcs     L000B
;
; temp_y = coin_y[index];
;
	ldy     _index
	lda     _coin_y,y
	sta     _temp_y
;
; if(temp_y == TURN_OFF) continue;
;
	cmp     #$FF
	beq     L0030
;
; if(get_frame_count() & 8) ++temp_y; // bounce the coin
;
	jsr     _get_frame_count
	and     #$08
	beq     L0010
	inc     _temp_y
;
; if(!coin_active[index]) continue;
;
L0010:	ldy     _index
	lda     _coin_active,y
	beq     L0030
;
; temp_x = coin_x[index];
;
	ldy     _index
	lda     _coin_x,y
	sta     _temp_x
;
; if(temp_x > 0xf0) continue;
;
	cmp     #$F1
	bcs     L0030
;
; if(temp_y < 0xf0) {
;
	lda     _temp_y
	cmp     #$F0
	bcs     L0030
;
; if(coin_type[index] == COIN_REG){
;
	ldy     _index
	lda     _coin_type,y
	bne     L0016
;
; oam_meta_spr(temp_x, temp_y, CoinSpr);
;
	jsr     decsp2
	lda     _temp_x
	ldy     #$01
	sta     (sp),y
	lda     _temp_y
	dey
	sta     (sp),y
	lda     #<(_CoinSpr)
	ldx     #>(_CoinSpr)
;
; else {
;
	jmp     L002A
;
; oam_meta_spr(temp_x, temp_y, BigCoinSpr);
;
L0016:	jsr     decsp2
	lda     _temp_x
	ldy     #$01
	sta     (sp),y
	lda     _temp_y
	dey
	sta     (sp),y
	lda     #<(_BigCoinSpr)
	ldx     #>(_BigCoinSpr)
L002A:	jsr     _oam_meta_spr
;
; for(index = 0; index < MAX_COINS; ++index){
;
L0030:	inc     _index
	jmp     L002F
;
; offset = get_frame_count() & 3;
;
L000B:	jsr     _get_frame_count
	and     #$03
	sta     _offset
;
; offset = offset << 4; // * 16, the size of the shuffle array
;
	asl     a
	asl     a
	asl     a
	asl     a
	sta     _offset
;
; for(index = 0; index < MAX_ENEMY; ++index){
;
	lda     #$00
	sta     _index
L0031:	lda     _index
	cmp     #$10
	bcs     L001A
;
; index2 = shuffle_array[offset];
;
	ldy     _offset
	lda     _shuffle_array,y
	sta     _index2
;
; ++offset;
;
	inc     _offset
;
; temp_y = enemy_y[index2];
;
	ldy     _index2
	lda     _enemy_y,y
	sta     _temp_y
;
; if(temp_y == TURN_OFF) continue;
;
	cmp     #$FF
	beq     L0033
;
; if(!enemy_active[index2]) continue;
;
	ldy     _index2
	lda     _enemy_active,y
	beq     L0033
;
; temp_x = enemy_x[index2];
;
	ldy     _index2
	lda     _enemy_x,y
	sta     _temp_x
;
; if(temp_x == 0) temp_x = 1; // problems with x = 0
;
	lda     _temp_x
	bne     L0032
	lda     #$01
	sta     _temp_x
;
; if(temp_x > 0xf0) continue;
;
L0032:	lda     _temp_x
	cmp     #$F1
	bcs     L0033
;
; if(temp_y < 0xf0) {
;
	lda     _temp_y
	cmp     #$F0
	bcs     L0033
;
; oam_meta_spr(temp_x, temp_y, enemy_anim[index2]);
;
	jsr     decsp2
	lda     _temp_x
	ldy     #$01
	sta     (sp),y
	lda     _temp_y
	dey
	sta     (sp),y
	ldx     #$00
	lda     _index2
	asl     a
	bcc     L002B
	inx
	clc
L002B:	adc     #<(_enemy_anim)
	sta     ptr1
	txa
	adc     #>(_enemy_anim)
	sta     ptr1+1
	iny
	lda     (ptr1),y
	tax
	dey
	lda     (ptr1),y
	jsr     _oam_meta_spr
;
; for(index = 0; index < MAX_ENEMY; ++index){
;
L0033:	inc     _index
	jmp     L0031
;
; oam_meta_spr(0x10, 0x0f, CoinHud);
;
L001A:	jsr     decsp2
	lda     #$10
	ldy     #$01
	sta     (sp),y
	lda     #$0F
	dey
	sta     (sp),y
	lda     #<(_CoinHud)
	ldx     #>(_CoinHud)
	jsr     _oam_meta_spr
;
; temp1 = (lives / 10) + 0xf0;
;
	lda     _lives
	jsr     pusha0
	lda     #$0A
	jsr     tosudiva0
	clc
	adc     #$F0
	sta     _temp1
;
; temp2 = (lives % 10) + 0xf0;
;
	lda     _lives
	jsr     pusha0
	lda     #$0A
	jsr     tosumoda0
	clc
	adc     #$F0
	sta     _temp2
;
; oam_spr(0x20, 0x17, temp1, 1);
;
	jsr     decsp3
	lda     #$20
	ldy     #$02
	sta     (sp),y
	lda     #$17
	dey
	sta     (sp),y
	lda     _temp1
	dey
	sta     (sp),y
	lda     #$01
	jsr     _oam_spr
;
; oam_spr(0x28, 0x17, temp2, 1);
;
	jsr     decsp3
	lda     #$28
	ldy     #$02
	sta     (sp),y
	lda     #$17
	dey
	sta     (sp),y
	lda     _temp2
	dey
	sta     (sp),y
	lda     #$01
	jmp     _oam_spr

.endproc

; ---------------------------------------------------------------
; void __near__ movement (void)
; ---------------------------------------------------------------

.segment	"CODE"

.proc	_movement: near

.segment	"CODE"

;
; old_x = BoxGuy1.x;
;
	lda     _BoxGuy1
	sta     _old_x
;
; if(pad1 & PAD_LEFT){
;
	lda     _pad1
	and     #$02
	beq     L0053
;
; direction = LEFT;
;
	lda     #$00
	sta     _direction
;
; if(BoxGuy1.x <= 0x100) {
;
	lda     _BoxGuy1+1
	cmp     #$01
	bne     L0004
	lda     _BoxGuy1
	cmp     #$01
L0004:	bcs     L0003
;
; BoxGuy1.vel_x = 0;
;
	lda     #$00
	sta     _BoxGuy1+4
	sta     _BoxGuy1+4+1
;
; BoxGuy1.x = 0x100;
;
	ldx     #$01
	sta     _BoxGuy1
	stx     _BoxGuy1+1
;
; else if(BoxGuy1.x < 0x400) { // don't want to wrap around to the other side
;
	jmp     L0018
L0003:	ldx     _BoxGuy1+1
	cpx     #$04
	bcs     L0006
;
; BoxGuy1.vel_x = -0x100;
;
	ldx     #$FF
	lda     #$00
;
; else {
;
	jmp     L0055
;
; BoxGuy1.vel_x -= ACCEL;
;
L0006:	lda     _BoxGuy1+4
	sec
	sbc     #$30
	sta     _BoxGuy1+4
	bcs     L0008
	dec     _BoxGuy1+4+1
;
; if(BoxGuy1.vel_x < -MAX_SPEED) BoxGuy1.vel_x = -MAX_SPEED;
;
L0008:	lda     _BoxGuy1+4
	cmp     #$C0
	lda     _BoxGuy1+4+1
	sbc     #$FD
	bvc     L000A
	eor     #$80
L000A:	jpl     L0018
	ldx     #$FD
	lda     #$C0
;
; else if (pad1 & PAD_RIGHT){
;
	jmp     L0055
L0053:	lda     _pad1
	and     #$01
	beq     L000C
;
; direction = RIGHT;
;
	lda     #$01
	sta     _direction
;
; BoxGuy1.vel_x += ACCEL;
;
	lda     #$30
	clc
	adc     _BoxGuy1+4
	sta     _BoxGuy1+4
	bcc     L000D
	inc     _BoxGuy1+4+1
;
; if(BoxGuy1.vel_x > MAX_SPEED) BoxGuy1.vel_x = MAX_SPEED;
;
L000D:	lda     _BoxGuy1+4
	cmp     #$41
	lda     _BoxGuy1+4+1
	sbc     #$02
	bvs     L000F
	eor     #$80
L000F:	bpl     L0018
	ldx     #$02
	lda     #$40
;
; else { // nothing pressed
;
	jmp     L0055
;
; if(BoxGuy1.vel_x >= 0x100) BoxGuy1.vel_x -= ACCEL;
;
L000C:	lda     _BoxGuy1+4
	cmp     #$00
	lda     _BoxGuy1+4+1
	sbc     #$01
	bvs     L0012
	eor     #$80
L0012:	bpl     L0011
	lda     _BoxGuy1+4
	sec
	sbc     #$30
	sta     _BoxGuy1+4
	bcs     L0018
	dec     _BoxGuy1+4+1
;
; else if(BoxGuy1.vel_x < -0x100) BoxGuy1.vel_x += ACCEL;
;
	jmp     L0018
L0011:	lda     _BoxGuy1+4
	cmp     #$00
	lda     _BoxGuy1+4+1
	sbc     #$FF
	bvc     L0016
	eor     #$80
L0016:	asl     a
	lda     #$00
	tax
	bcc     L0055
	lda     #$30
	clc
	adc     _BoxGuy1+4
	sta     _BoxGuy1+4
	bcc     L0018
	inc     _BoxGuy1+4+1
;
; else BoxGuy1.vel_x = 0;
;
	jmp     L0018
L0055:	sta     _BoxGuy1+4
	stx     _BoxGuy1+4+1
;
; BoxGuy1.x += BoxGuy1.vel_x;
;
L0018:	lda     _BoxGuy1+4
	clc
	adc     _BoxGuy1
	sta     _BoxGuy1
	lda     _BoxGuy1+4+1
	adc     _BoxGuy1+1
	sta     _BoxGuy1+1
;
; if(BoxGuy1.x > 0xf800) { // make sure no wrap around to the other side
;
	lda     _BoxGuy1
	cmp     #$01
	lda     _BoxGuy1+1
	sbc     #$F8
	bcc     L0056
;
; BoxGuy1.x = 0x100;
;
	ldx     #$01
	lda     #$00
	sta     _BoxGuy1
	stx     _BoxGuy1+1
;
; BoxGuy1.vel_x = 0;
;
	sta     _BoxGuy1+4
	sta     _BoxGuy1+4+1
;
; L_R_switch = 1; // shinks the y values in bg_coll, less problems with head / feet collisions
;
L0056:	lda     #$01
	sta     _L_R_switch
;
; Generic.x = high_byte(BoxGuy1.x); // this is much faster than passing a pointer to BoxGuy1
;
	lda     _BoxGuy1+1
	sta     _Generic
;
; Generic.y = high_byte(BoxGuy1.y);
;
	lda     _BoxGuy1+3
	sta     _Generic+1
;
; Generic.width = HERO_WIDTH;
;
	lda     #$0D
	sta     _Generic+2
;
; Generic.height = HERO_HEIGHT;
;
	lda     #$0B
	sta     _Generic+3
;
; bg_collision();
;
	jsr     _bg_collision
;
; if(collision_R && collision_L){ // if both true, probably half stuck in a wall
;
	lda     _collision_R
	beq     L001A
	lda     _collision_L
	beq     L001A
;
; BoxGuy1.x = old_x;
;
	ldx     #$00
	lda     _old_x
	sta     _BoxGuy1
	stx     _BoxGuy1+1
;
; BoxGuy1.vel_x = 0;
;
	txa
	sta     _BoxGuy1+4
	sta     _BoxGuy1+4+1
;
; else if(collision_L) {
;
	jmp     L0057
L001A:	lda     _collision_L
	beq     L001F
;
; BoxGuy1.vel_x = 0;
;
	lda     #$00
	sta     _BoxGuy1+4
	sta     _BoxGuy1+4+1
;
; high_byte(BoxGuy1.x) = high_byte(BoxGuy1.x) - eject_L;
;
	lda     _BoxGuy1+1
	sec
	sbc     _eject_L
;
; else if(collision_R) {
;
	jmp     L0060
L001F:	lda     _collision_R
	beq     L0057
;
; BoxGuy1.vel_x = 0;
;
	lda     #$00
	sta     _BoxGuy1+4
	sta     _BoxGuy1+4+1
;
; high_byte(BoxGuy1.x) = high_byte(BoxGuy1.x) - eject_R;
;
	lda     _BoxGuy1+1
	sec
	sbc     _eject_R
L0060:	sta     _BoxGuy1+1
;
; old_y = BoxGuy1.y;
;
L0057:	lda     _BoxGuy1+2
	sta     _old_y
;
; if(pad1 & PAD_UP){
;
	lda     _pad1
	and     #$08
	beq     L0058
;
; direction = UP;
;
	lda     #$02
	sta     _direction
;
; if(BoxGuy1.y <= 0x100) {
;
	lda     _BoxGuy1+2+1
	cmp     #$01
	bne     L0024
	lda     _BoxGuy1+2
	cmp     #$01
L0024:	bcs     L0023
;
; BoxGuy1.vel_y = 0;
;
	lda     #$00
	sta     _BoxGuy1+6
	sta     _BoxGuy1+6+1
;
; BoxGuy1.y = 0x100;
;
	ldx     #$01
	sta     _BoxGuy1+2
	stx     _BoxGuy1+2+1
;
; else if(BoxGuy1.y < 0x5fff) { // don't want to wrap around to the other side
;
	jmp     L003B
L0023:	lda     _BoxGuy1+2+1
	cmp     #$5F
	bne     L0027
	lda     _BoxGuy1+2
	cmp     #$FF
L0027:	bcs     L0026
;
; BoxGuy1.vel_y = 0;
;
	ldx     #$00
	txa
;
; else {
;
	jmp     L005A
;
; BoxGuy1.vel_y -= ACCEL;
;
L0026:	lda     _BoxGuy1+6
	sec
	sbc     #$30
	sta     _BoxGuy1+6
	bcs     L0029
	dec     _BoxGuy1+6+1
;
; if(BoxGuy1.vel_y < -MAX_SPEED) BoxGuy1.vel_y = -MAX_SPEED;
;
L0029:	lda     _BoxGuy1+6
	cmp     #$C0
	lda     _BoxGuy1+6+1
	sbc     #$FD
	bvc     L002B
	eor     #$80
L002B:	jpl     L003B
	ldx     #$FD
	lda     #$C0
;
; else if (pad1 & PAD_DOWN){
;
	jmp     L005A
L0058:	lda     _pad1
	and     #$04
	beq     L002D
;
; direction = DOWN;
;
	lda     #$03
	sta     _direction
;
; if(BoxGuy1.y > 0xc0f0) { // make sure no wrap around to the other side
;
	lda     _BoxGuy1+2
	cmp     #$F1
	lda     _BoxGuy1+2+1
	sbc     #$C0
	bcc     L002E
;
; BoxGuy1.vel_y = 0;
;
	lda     #$00
	sta     _BoxGuy1+6
	sta     _BoxGuy1+6+1
;
; else
;
	jmp     L002F
;
; BoxGuy1.vel_y += ACCEL;
;
L002E:	lda     #$30
	clc
	adc     _BoxGuy1+6
	sta     _BoxGuy1+6
	bcc     L002F
	inc     _BoxGuy1+6+1
;
; if(BoxGuy1.vel_y > MAX_SPEED) BoxGuy1.vel_y = MAX_SPEED;
;
L002F:	lda     _BoxGuy1+6
	cmp     #$41
	lda     _BoxGuy1+6+1
	sbc     #$02
	bvs     L0032
	eor     #$80
L0032:	bpl     L003B
	ldx     #$02
	lda     #$40
;
; else { // nothing pressed
;
	jmp     L005A
;
; if(BoxGuy1.vel_y >= 0x100) BoxGuy1.vel_y -= ACCEL;
;
L002D:	lda     _BoxGuy1+6
	cmp     #$00
	lda     _BoxGuy1+6+1
	sbc     #$01
	bvs     L0035
	eor     #$80
L0035:	bpl     L0034
	lda     _BoxGuy1+6
	sec
	sbc     #$30
	sta     _BoxGuy1+6
	bcs     L003B
	dec     _BoxGuy1+6+1
;
; else if(BoxGuy1.vel_y < -0x100) BoxGuy1.vel_y += ACCEL;
;
	jmp     L003B
L0034:	lda     _BoxGuy1+6
	cmp     #$00
	lda     _BoxGuy1+6+1
	sbc     #$FF
	bvc     L0039
	eor     #$80
L0039:	asl     a
	lda     #$00
	tax
	bcc     L005A
	lda     #$30
	clc
	adc     _BoxGuy1+6
	sta     _BoxGuy1+6
	bcc     L003B
	inc     _BoxGuy1+6+1
;
; else BoxGuy1.vel_y = 0;
;
	jmp     L003B
L005A:	sta     _BoxGuy1+6
	stx     _BoxGuy1+6+1
;
; BoxGuy1.y += BoxGuy1.vel_y;
;
L003B:	lda     _BoxGuy1+6
	clc
	adc     _BoxGuy1+2
	sta     _BoxGuy1+2
	lda     _BoxGuy1+6+1
	adc     _BoxGuy1+2+1
	sta     _BoxGuy1+2+1
;
; if(BoxGuy1.y > 0xf800) { // make sure no wrap around to the other side
;
	lda     _BoxGuy1+2
	cmp     #$01
	lda     _BoxGuy1+2+1
	sbc     #$F8
	bcc     L005B
;
; BoxGuy1.y = 0x100;
;
	ldx     #$01
	lda     #$00
	sta     _BoxGuy1+2
	stx     _BoxGuy1+2+1
;
; BoxGuy1.vel_y = 0;
;
	sta     _BoxGuy1+6
	sta     _BoxGuy1+6+1
;
; L_R_switch = 1; // shinks the y values in bg_coll, less problems with head / feet collisions
;
L005B:	lda     #$01
	sta     _L_R_switch
;
; Generic.x = high_byte(BoxGuy1.x); // this is much faster than passing a pointer to BoxGuy1
;
	lda     _BoxGuy1+1
	sta     _Generic
;
; Generic.y = high_byte(BoxGuy1.y);
;
	lda     _BoxGuy1+3
	sta     _Generic+1
;
; Generic.width = HERO_WIDTH;
;
	lda     #$0D
	sta     _Generic+2
;
; Generic.height = HERO_HEIGHT;
;
	lda     #$0B
	sta     _Generic+3
;
; bg_collision();
;
	jsr     _bg_collision
;
; if(collision_D && collision_U){ // if both true, probably half stuck in a wall
;
	lda     _collision_D
	beq     L003D
	lda     _collision_U
	beq     L003D
;
; BoxGuy1.y = old_y;
;
	ldx     #$00
	lda     _old_y
	sta     _BoxGuy1+2
	stx     _BoxGuy1+2+1
;
; BoxGuy1.vel_y = 0;
;
	txa
	sta     _BoxGuy1+6
	sta     _BoxGuy1+6+1
;
; else if(collision_U) {
;
	jmp     L005C
L003D:	lda     _collision_U
	beq     L0042
;
; BoxGuy1.vel_y = 0;
;
	lda     #$00
	sta     _BoxGuy1+6
	sta     _BoxGuy1+6+1
;
; high_byte(BoxGuy1.y) = high_byte(BoxGuy1.y) - eject_U;
;
	lda     _BoxGuy1+3
	sec
	sbc     _eject_U
;
; else if(collision_D) {
;
	jmp     L0061
L0042:	lda     _collision_D
	beq     L005C
;
; BoxGuy1.vel_y = 0;
;
	lda     #$00
	sta     _BoxGuy1+6
	sta     _BoxGuy1+6+1
;
; high_byte(BoxGuy1.y) = high_byte(BoxGuy1.y) - eject_D;
;
	lda     _BoxGuy1+3
	sec
	sbc     _eject_D
L0061:	sta     _BoxGuy1+3
;
; Generic.y = high_byte(BoxGuy1.y); // the rest should be the same
;
L005C:	lda     _BoxGuy1+3
	sta     _Generic+1
;
; bg_check_low();
;
	jsr     _bg_check_low
;
; if(!collision_U) {
;
	lda     _collision_U
	bne     L0046
;
; if(pad1_new & PAD_UP) {
;
	lda     _pad1_new
	and     #$08
	beq     L0046
;
; BoxGuy1.vel_y = JUMP_VEL; // JUMP
;
	ldx     #$FA
	lda     #$00
	sta     _BoxGuy1+6
	stx     _BoxGuy1+6+1
;
; if((scroll_x & 0xff) < 4){
;
L0046:	lda     _scroll_x
	cmp     #$04
	bcs     L005D
;
; if(!map_loaded){
;
	lda     _map_loaded
	bne     L004A
;
; new_cmap();
;
	jsr     _new_cmap
;
; map_loaded = 1; // only do once
;
	lda     #$01
;
; else{
;
	jmp     L0052
;
; map_loaded = 0;
;
L005D:	lda     #$00
L0052:	sta     _map_loaded
;
; temp5 = BoxGuy1.x;
;
L004A:	lda     _BoxGuy1+1
	sta     _temp5+1
	lda     _BoxGuy1
	sta     _temp5
;
; if (BoxGuy1.x > MAX_RIGHT){
;
	lda     _BoxGuy1
	cmp     #$01
	lda     _BoxGuy1+1
	sbc     #$90
	bcc     L004B
;
; temp1 = (BoxGuy1.x - MAX_RIGHT) >> 8;
;
	lda     _BoxGuy1+1
	sec
	sbc     #$90
	sta     _temp1
;
; scroll_x += temp1;
;
	clc
	adc     _scroll_x
	sta     _scroll_x
	lda     #$00
	adc     _scroll_x+1
	sta     _scroll_x+1
;
; high_byte(BoxGuy1.x) = high_byte(BoxGuy1.x) - temp1;
;
	lda     _BoxGuy1+1
	sec
	sbc     _temp1
	sta     _BoxGuy1+1
;
; if(scroll_x >= MAX_SCROLL) {
;
L004B:	lda     _scroll_x
	cmp     #$FF
	lda     _scroll_x+1
	sbc     #$06
	bcc     L004D
;
; scroll_x = MAX_SCROLL; // stop scrolling right, end of level
;
	ldx     #$06
	lda     #$FF
	sta     _scroll_x
	stx     _scroll_x+1
;
; BoxGuy1.x = temp5; // but allow the x position to go all the way right
;
	lda     _temp5+1
	sta     _BoxGuy1+1
	lda     _temp5
	sta     _BoxGuy1
;
; if(high_byte(BoxGuy1.x) >= 0xf1) {
;
	lda     _BoxGuy1+1
	cmp     #$F1
	bcc     L004D
;
; BoxGuy1.x = 0xf100;
;
	ldx     #$F1
	lda     #$00
	sta     _BoxGuy1
	stx     _BoxGuy1+1
;
; } 
;
L004D:	rts

.endproc

; ---------------------------------------------------------------
; void __near__ bg_collision (void)
; ---------------------------------------------------------------

.segment	"CODE"

.proc	_bg_collision: near

.segment	"CODE"

;
; collision_L = 0;
;
	lda     #$00
	sta     _collision_L
;
; collision_R = 0;
;
	sta     _collision_R
;
; collision_U = 0;
;
	sta     _collision_U
;
; collision_D = 0;
;
	sta     _collision_D
;
; if(Generic.y >= 0xf0) return;
;
	lda     _Generic+1
	cmp     #$F0
	bcc     L0017
;
; }
;
	rts
;
; temp6 = temp5 = Generic.x + scroll_x; // upper left (temp6 = save for reuse)
;
L0017:	lda     _Generic
	clc
	adc     _scroll_x
	pha
	lda     #$00
	adc     _scroll_x+1
	tax
	pla
	sta     _temp5
	stx     _temp5+1
	sta     _temp6
	stx     _temp6+1
;
; temp1 = temp5 & 0xff; // low byte x
;
	lda     _temp5
	sta     _temp1
;
; temp2 = temp5 >> 8; // high byte x
;
	lda     _temp5+1
	sta     _temp2
;
; eject_L = temp1 | 0xf0;
;
	lda     _temp1
	ora     #$F0
	sta     _eject_L
;
; temp3 = Generic.y; // y top
;
	lda     _Generic+1
	sta     _temp3
;
; eject_U = temp3 | 0xf0;
;
	ora     #$F0
	sta     _eject_U
;
; if(L_R_switch) temp3 += 2; // fix bug, walking through walls
;
	lda     _L_R_switch
	beq     L0003
	lda     #$02
	clc
	adc     _temp3
	sta     _temp3
;
; bg_collision_sub();
;
L0003:	jsr     _bg_collision_sub
;
; if(collision & COL_ALL){ // find a corner in the collision map
;
	lda     _collision
	and     #$40
	beq     L0011
;
; ++collision_L;
;
	inc     _collision_L
;
; ++collision_U;
;
	inc     _collision_U
;
; temp5 += Generic.width;
;
L0011:	lda     _Generic+2
	clc
	adc     _temp5
	sta     _temp5
	lda     #$00
	adc     _temp5+1
	sta     _temp5+1
;
; temp1 = temp5 & 0xff; // low byte x
;
	lda     _temp5
	sta     _temp1
;
; temp2 = temp5 >> 8; // high byte x
;
	lda     _temp5+1
	sta     _temp2
;
; eject_R = (temp1 + 1) & 0x0f;
;
	lda     _temp1
	clc
	adc     #$01
	and     #$0F
	sta     _eject_R
;
; bg_collision_sub();
;
	jsr     _bg_collision_sub
;
; if(collision & COL_ALL){ // find a corner in the collision map
;
	lda     _collision
	and     #$40
	beq     L0012
;
; ++collision_R;
;
	inc     _collision_R
;
; ++collision_U;
;
	inc     _collision_U
;
; temp3 = Generic.y + Generic.height; //y bottom
;
L0012:	lda     _Generic+1
	clc
	adc     _Generic+3
	sta     _temp3
;
; if(L_R_switch) temp3 -= 2; // fix bug, walking through walls
;
	lda     _L_R_switch
	beq     L0013
	lda     _temp3
	sec
	sbc     #$02
	sta     _temp3
;
; eject_D = (temp3 + 1) & 0x0f;
;
L0013:	lda     _temp3
	clc
	adc     #$01
	and     #$0F
	sta     _eject_D
;
; if(temp3 >= 0xf0) return;
;
	lda     _temp3
	cmp     #$F0
	bcs     L000E
;
; bg_collision_sub();
;
	jsr     _bg_collision_sub
;
; if(collision & COL_ALL){ // find a corner in the collision map
;
	lda     _collision
	and     #$40
	beq     L0014
;
; ++collision_R;
;
	inc     _collision_R
;
; if(collision & (COL_DOWN|COL_ALL)){ // find a corner in the collision map
;
L0014:	lda     _collision
	and     #$C0
	beq     L000B
;
; ++collision_D;
;
	inc     _collision_D
;
; temp1 = temp6 & 0xff; // low byte x
;
L000B:	lda     _temp6
	sta     _temp1
;
; temp2 = temp6 >> 8; // high byte x
;
	lda     _temp6+1
	sta     _temp2
;
; bg_collision_sub();
;
	jsr     _bg_collision_sub
;
; if(collision & COL_ALL){ // find a corner in the collision map
;
	lda     _collision
	and     #$40
	beq     L0015
;
; ++collision_L;
;
	inc     _collision_L
;
; if(collision & (COL_DOWN|COL_ALL)){ // find a corner in the collision map
;
L0015:	lda     _collision
	and     #$C0
	beq     L0016
;
; ++collision_D;
;
	inc     _collision_D
;
; if((temp3 & 0x0f) > 3) collision_D = 0; // for platforms, only collide with the top 3 pixels
;
L0016:	lda     _temp3
	and     #$0F
	cmp     #$04
	lda     #$00
	sbc     #$00
	bvs     L000F
	eor     #$80
L000F:	bpl     L000E
	lda     #$00
	sta     _collision_D
;
; }
;
L000E:	rts

.endproc

; ---------------------------------------------------------------
; void __near__ draw_screen_R (void)
; ---------------------------------------------------------------

.segment	"CODE"

.proc	_draw_screen_R: near

.segment	"CODE"

;
; pseudo_scroll_x = scroll_x + 0x120;
;
	lda     _scroll_x
	ldx     _scroll_x+1
	clc
	adc     #$20
	bcc     L0002
	inx
L0002:	inx
	sta     _pseudo_scroll_x
	stx     _pseudo_scroll_x+1
;
; temp1 = pseudo_scroll_x >> 8;
;
	lda     _pseudo_scroll_x+1
	sta     _temp1
;
; offset = Level_offsets[level];
;
	ldy     _level
	lda     _Level_offsets,y
	sta     _offset
;
; offset += temp1;
;
	lda     _temp1
	clc
	adc     _offset
	sta     _offset
;
; set_data_pointer(Levels_list[offset]);
;
	ldx     #$00
	lda     _offset
	asl     a
	bcc     L0013
	inx
	clc
L0013:	adc     #<(_Levels_list)
	sta     ptr1
	txa
	adc     #>(_Levels_list)
	sta     ptr1+1
	ldy     #$01
	lda     (ptr1),y
	tax
	dey
	lda     (ptr1),y
	jsr     _set_data_pointer
;
; nt = temp1 & 1;
;
	lda     _temp1
	and     #$01
	sta     _nt
;
; x = pseudo_scroll_x & 0xff;
;
	lda     _pseudo_scroll_x
	sta     _x
;
; switch(scroll_count){
;
	lda     _scroll_count
;
; }
;
	beq     L0006
	cmp     #$01
	beq     L0008
	cmp     #$02
	jeq     L000B
	jmp     L000E
;
; address = get_ppu_addr(nt, x, 0);
;
L0006:	jsr     decsp2
	lda     _nt
	ldy     #$01
	sta     (sp),y
	lda     _x
	dey
	sta     (sp),y
	tya
	jsr     _get_ppu_addr
	sta     _address
	stx     _address+1
;
; index = 0 + (x >> 4);
;
	lda     _x
	lsr     a
	lsr     a
	lsr     a
	lsr     a
	sta     _index
;
; buffer_4_mt(address, index); // ppu_address, index to the data
;
	lda     _address
	ldx     _address+1
	jsr     pushax
	lda     _index
	jsr     _buffer_4_mt
;
; address = get_ppu_addr(nt, x, 0x20);
;
	jsr     decsp2
	lda     _nt
	ldy     #$01
	sta     (sp),y
	lda     _x
	dey
	sta     (sp),y
	lda     #$20
	jsr     _get_ppu_addr
	sta     _address
	stx     _address+1
;
; index = 0x20 + (x >> 4);
;
	lda     _x
	lsr     a
	lsr     a
	lsr     a
	lsr     a
	clc
	adc     #$20
;
; break;
;
	jmp     L0018
;
; address = get_ppu_addr(nt, x, 0x40);
;
L0008:	jsr     decsp2
	lda     _nt
	ldy     #$01
	sta     (sp),y
	lda     _x
	dey
	sta     (sp),y
	lda     #$40
	jsr     _get_ppu_addr
	sta     _address
	stx     _address+1
;
; index = 0x40 + (x >> 4);
;
	lda     _x
	lsr     a
	lsr     a
	lsr     a
	lsr     a
	clc
	adc     #$40
	sta     _index
;
; buffer_4_mt(address, index); // ppu_address, index to the data
;
	lda     _address
	ldx     _address+1
	jsr     pushax
	lda     _index
	jsr     _buffer_4_mt
;
; address = get_ppu_addr(nt, x, 0x60);
;
	jsr     decsp2
	lda     _nt
	ldy     #$01
	sta     (sp),y
	lda     _x
	dey
	sta     (sp),y
	lda     #$60
	jsr     _get_ppu_addr
	sta     _address
	stx     _address+1
;
; index = 0x60 + (x >> 4);
;
	lda     _x
	lsr     a
	lsr     a
	lsr     a
	lsr     a
	clc
	adc     #$60
;
; break;
;
	jmp     L0018
;
; address = get_ppu_addr(nt, x, 0x80);
;
L000B:	jsr     decsp2
	lda     _nt
	ldy     #$01
	sta     (sp),y
	lda     _x
	dey
	sta     (sp),y
	lda     #$80
	jsr     _get_ppu_addr
	sta     _address
	stx     _address+1
;
; index = 0x80 + (x >> 4);
;
	lda     _x
	lsr     a
	lsr     a
	lsr     a
	lsr     a
	clc
	adc     #$80
	sta     _index
;
; buffer_4_mt(address, index); // ppu_address, index to the data
;
	lda     _address
	ldx     _address+1
	jsr     pushax
	lda     _index
	jsr     _buffer_4_mt
;
; address = get_ppu_addr(nt, x, 0xa0);
;
	jsr     decsp2
	lda     _nt
	ldy     #$01
	sta     (sp),y
	lda     _x
	dey
	sta     (sp),y
	lda     #$A0
	jsr     _get_ppu_addr
	sta     _address
	stx     _address+1
;
; index = 0xa0 + (x >> 4);
;
	lda     _x
	lsr     a
	lsr     a
	lsr     a
	lsr     a
	clc
	adc     #$A0
;
; break;
;
	jmp     L0018
;
; address = get_ppu_addr(nt, x, 0xc0);
;
L000E:	jsr     decsp2
	lda     _nt
	ldy     #$01
	sta     (sp),y
	lda     _x
	dey
	sta     (sp),y
	lda     #$C0
	jsr     _get_ppu_addr
	sta     _address
	stx     _address+1
;
; index = 0xc0 + (x >> 4);
;
	lda     _x
	lsr     a
	lsr     a
	lsr     a
	lsr     a
	clc
	adc     #$C0
	sta     _index
;
; buffer_4_mt(address, index); // ppu_address, index to the data
;
	lda     _address
	ldx     _address+1
	jsr     pushax
	lda     _index
	jsr     _buffer_4_mt
;
; address = get_ppu_addr(nt, x, 0xe0);
;
	jsr     decsp2
	lda     _nt
	ldy     #$01
	sta     (sp),y
	lda     _x
	dey
	sta     (sp),y
	lda     #$E0
	jsr     _get_ppu_addr
	sta     _address
	stx     _address+1
;
; index = 0xe0 + (x >> 4);
;
	lda     _x
	lsr     a
	lsr     a
	lsr     a
	lsr     a
	clc
	adc     #$E0
L0018:	sta     _index
;
; buffer_4_mt(address, index); // ppu_address, index to the data
;
	lda     _address
	ldx     _address+1
	jsr     pushax
	lda     _index
	jsr     _buffer_4_mt
;
; ++scroll_count;
;
	inc     _scroll_count
;
; scroll_count &= 3; //mask off top bits, keep it 0-3
;
	lda     _scroll_count
	and     #$03
	sta     _scroll_count
;
; }
;
	rts

.endproc

; ---------------------------------------------------------------
; void __near__ new_cmap (void)
; ---------------------------------------------------------------

.segment	"CODE"

.proc	_new_cmap: near

.segment	"CODE"

;
; room = ((scroll_x >> 8) +1); //high byte = room, one to the right
;
	lda     _scroll_x+1
	clc
	adc     #$01
	sta     _room
;
; offset = Level_offsets[level];
;
	ldy     _level
	lda     _Level_offsets,y
	sta     _offset
;
; offset += room;
;
	lda     _room
	clc
	adc     _offset
	sta     _offset
;
; map = room & 1; //even or odd?
;
	lda     _room
	and     #$01
	sta     _map
;
; if(!map){
;
	lda     _map
	bne     L0004
;
; memcpy (c_map, Levels_list[offset], 240);
;
	lda     #<(_c_map)
	ldx     #>(_c_map)
;
; else{
;
	jmp     L001D
;
; memcpy (c_map2, Levels_list[offset], 240);
;
L0004:	lda     #<(_c_map2)
	ldx     #>(_c_map2)
L001D:	jsr     pushax
	ldx     #$00
	lda     _offset
	asl     a
	bcc     L000A
	inx
	clc
L000A:	adc     #<(_Levels_list)
	sta     ptr1
	txa
	adc     #>(_Levels_list)
	sta     ptr1+1
	ldy     #$01
	lda     (ptr1),y
	tax
	dey
	lda     (ptr1),y
	jsr     pushax
	ldx     #$00
	lda     #$F0
	jmp     _memcpy

.endproc

; ---------------------------------------------------------------
; void __near__ bg_collision_sub (void)
; ---------------------------------------------------------------

.segment	"CODE"

.proc	_bg_collision_sub: near

.segment	"CODE"

;
; coordinates = (temp1 >> 4) + (temp3 & 0xf0);
;
	lda     _temp1
	lsr     a
	lsr     a
	lsr     a
	lsr     a
	sta     ptr1
	lda     _temp3
	and     #$F0
	clc
	adc     ptr1
	sta     _coordinates
;
; map = temp2&1; // high byte
;
	lda     _temp2
	and     #$01
	sta     _map
;
; if(!map){
;
	lda     _map
	bne     L0002
;
; collision = c_map[coordinates];
;
	ldy     _coordinates
	lda     _c_map,y
;
; else{
;
	jmp     L0008
;
; collision = c_map2[coordinates];
;
L0002:	ldy     _coordinates
	lda     _c_map2,y
L0008:	sta     _collision
;
; collision = is_solid[collision];
;
	ldy     _collision
	lda     _is_solid,y
	sta     _collision
;
; }
;
	rts

.endproc

; ---------------------------------------------------------------
; void __near__ bg_check_low (void)
; ---------------------------------------------------------------

.segment	"CODE"

.proc	_bg_check_low: near

.segment	"CODE"

;
; collision_D = 0;
;
	lda     #$00
	sta     _collision_D
;
; temp5 = Generic.x + scroll_x;    //left
;
	lda     _Generic
	clc
	adc     _scroll_x
	pha
	lda     #$00
	adc     _scroll_x+1
	sta     _temp5+1
	pla
	sta     _temp5
;
; temp1 = temp5 & 0xff; //low byte
;
	sta     _temp1
;
; temp2 = temp5 >> 8; //high byte
;
	lda     _temp5+1
	sta     _temp2
;
; temp3 = Generic.y + Generic.height + 1; // bottom
;
	lda     _Generic+1
	clc
	adc     _Generic+3
	bcc     L0009
	clc
L0009:	adc     #$01
	sta     _temp3
;
; if(temp3 >= 0xf0) return;
;
	cmp     #$F0
	bcs     L0006
;
; bg_collision_sub();
;
	jsr     _bg_collision_sub
;
; if(collision & (COL_DOWN|COL_ALL)){ // find a corner in the collision map
;
	lda     _collision
	and     #$C0
	beq     L000A
;
; ++collision_D;
;
	inc     _collision_D
;
; temp5 += Generic.width;
;
L000A:	lda     _Generic+2
	clc
	adc     _temp5
	sta     _temp5
	lda     #$00
	adc     _temp5+1
	sta     _temp5+1
;
; temp1 = temp5 & 0xff; //low byte
;
	lda     _temp5
	sta     _temp1
;
; temp2 = temp5 >> 8; //high byte
;
	lda     _temp5+1
	sta     _temp2
;
; bg_collision_sub();
;
	jsr     _bg_collision_sub
;
; if(collision & (COL_DOWN|COL_ALL)){ // find a corner in the collision map
;
	lda     _collision
	and     #$C0
	beq     L000B
;
; ++collision_D;
;
	inc     _collision_D
;
; if((temp3 & 0x0f) > 3) collision_D = 0; // for platforms, only collide with the top 3 pixels
;
L000B:	lda     _temp3
	and     #$0F
	cmp     #$04
	lda     #$00
	sbc     #$00
	bvs     L0007
	eor     #$80
L0007:	bpl     L0006
	lda     #$00
	sta     _collision_D
;
; }
;
L0006:	rts

.endproc

; ---------------------------------------------------------------
; char __near__ get_position (void)
; ---------------------------------------------------------------

.segment	"CODE"

.proc	_get_position: near

.segment	"CODE"

;
; temp5 -= scroll_x;
;
	lda     _scroll_x
	eor     #$FF
	sec
	adc     _temp5
	sta     _temp5
	lda     _scroll_x+1
	eor     #$FF
	adc     _temp5+1
	sta     _temp5+1
;
; temp_x = temp5 & 0xff;
;
	lda     _temp5
	ldx     #$00
	sta     _temp_x
;
; if(high_byte(temp5)) return 0;
;
	lda     _temp5+1
	beq     L0003
	txa
	rts
;
; return 1;
;
L0003:	lda     #$01
;
; }
;
	rts

.endproc

; ---------------------------------------------------------------
; void __near__ enemy_moves (void)
; ---------------------------------------------------------------

.segment	"CODE"

.proc	_enemy_moves: near

.segment	"CODE"

;
; if(enemy_type[index] == ENEMY_CHASE){
;
	ldy     _index
	lda     _enemy_type,y
	jne     L0002
;
; Generic.x = enemy_x[index];
;
	ldy     _index
	lda     _enemy_x,y
	sta     _Generic
;
; Generic.y = enemy_y[index] + 6; // mid point
;
	ldy     _index
	lda     _enemy_y,y
	clc
	adc     #$06
	sta     _Generic+1
;
; Generic.width = 13;
;
	lda     #$0D
	sta     _Generic+2
;
; enemy_anim[index] = EnemyChaseSpr;
;
	ldx     #$00
	lda     _index
	asl     a
	bcc     L002D
	inx
	clc
L002D:	adc     #<(_enemy_anim)
	sta     ptr1
	txa
	adc     #>(_enemy_anim)
	sta     ptr1+1
	lda     #<(_EnemyChaseSpr)
	ldy     #$00
	sta     (ptr1),y
	iny
	lda     #>(_EnemyChaseSpr)
	sta     (ptr1),y
;
; if(enemy_frames & 1) return; // half speed
;
	lda     _enemy_frames
	and     #$01
	beq     L003C
;
; }
;
	rts
;
; if(enemy_x[index] > Generic2.x){
;
L003C:	ldy     _index
	lda     _enemy_x,y
	cmp     _Generic2
	bcc     L0008
	beq     L0008
;
; Generic.x -= 1;
;
	dec     _Generic
;
; bg_collision_fast();
;
	jsr     _bg_collision_fast
;
; if(collision_L) return;
;
	lda     _collision_L
	beq     L003D
;
; }
;
	rts
;
; if(enemy_actual_x[index] == 0) --enemy_room[index];
;
L003D:	ldy     _index
	lda     _enemy_actual_x,y
	bne     L000B
	lda     #<(_enemy_room)
	ldx     #>(_enemy_room)
	clc
	adc     _index
	bcc     L000D
	inx
L000D:	sta     ptr1
	stx     ptr1+1
	ldy     #$00
	lda     (ptr1),y
	sec
	sbc     #$01
	sta     (ptr1),y
;
; --enemy_actual_x[index];
;
L000B:	lda     #<(_enemy_actual_x)
	ldx     #>(_enemy_actual_x)
	clc
	adc     _index
	bcc     L000E
	inx
L000E:	sta     ptr1
	stx     ptr1+1
	ldy     #$00
	lda     (ptr1),y
	sec
	sbc     #$01
;
; else if(enemy_x[index] < Generic2.x){ //Generic2 = hero.x, high byte
;
	jmp     L002C
L0008:	ldy     _index
	lda     _enemy_x,y
	cmp     _Generic2
	bcc     L003E
;
; }
;
	rts
;
; Generic.x += 1;
;
L003E:	inc     _Generic
;
; bg_collision_fast();
;
	jsr     _bg_collision_fast
;
; if(collision_R) return;
;
	lda     _collision_R
	beq     L003F
;
; }
;
	rts
;
; ++enemy_actual_x[index];
;
L003F:	lda     #<(_enemy_actual_x)
	ldx     #>(_enemy_actual_x)
	clc
	adc     _index
	bcc     L0013
	inx
L0013:	sta     ptr1
	stx     ptr1+1
	ldy     #$00
	lda     #$01
	clc
	adc     (ptr1),y
	sta     (ptr1),y
;
; if(enemy_actual_x[index] == 0) ++enemy_room[index];
;
	ldy     _index
	lda     _enemy_actual_x,y
	beq     L0040
;
; }
;
	rts
;
; if(enemy_actual_x[index] == 0) ++enemy_room[index];
;
L0040:	lda     #<(_enemy_room)
	ldx     #>(_enemy_room)
;
; else if(enemy_type[index] == ENEMY_BOUNCE){
;
	jmp     L003B
L0002:	ldy     _index
	lda     _enemy_type,y
	cmp     #$01
	beq     L0041
;
; }
;
	rts
;
; temp1 = enemy_frames + (index << 3);
;
L0041:	lda     _index
	asl     a
	asl     a
	asl     a
	clc
	adc     _enemy_frames
	sta     _temp1
;
; if((temp1 & 0x3f) < 16){
;
	and     #$3F
	cmp     #$10
	lda     #$00
	sbc     #$00
	bvc     L001B
	eor     #$80
L001B:	bpl     L0031
;
; enemy_anim[index] = EnemyBounceSpr;
;
	ldx     #$00
	lda     _index
	asl     a
	bcc     L002E
	inx
	clc
L002E:	adc     #<(_enemy_anim)
	sta     ptr1
	txa
	adc     #>(_enemy_anim)
	sta     ptr1+1
	lda     #<(_EnemyBounceSpr)
	ldy     #$00
	sta     (ptr1),y
	iny
	lda     #>(_EnemyBounceSpr)
	sta     (ptr1),y
;
; else if((temp1 & 0x3f) < 40){
;
	rts
L0031:	lda     _temp1
	and     #$3F
	cmp     #$28
	lda     #$00
	sbc     #$00
	bvc     L001E
	eor     #$80
L001E:	asl     a
	ldx     #$00
	bcc     L0032
;
; --enemy_y[index];
;
	lda     #<(_enemy_y)
	ldx     #>(_enemy_y)
	clc
	adc     _index
	bcc     L001F
	inx
L001F:	sta     ptr1
	stx     ptr1+1
	ldy     #$00
	lda     (ptr1),y
	sec
	sbc     #$01
	sta     (ptr1),y
;
; enemy_anim[index] = EnemyBounceSpr2;
;
	ldx     #$00
	lda     _index
	asl     a
	bcc     L002F
	inx
	clc
L002F:	adc     #<(_enemy_anim)
	sta     ptr1
	txa
	adc     #>(_enemy_anim)
	sta     ptr1+1
	lda     #<(_EnemyBounceSpr2)
	sta     (ptr1),y
	iny
	lda     #>(_EnemyBounceSpr2)
	sta     (ptr1),y
;
; else {
;
	rts
;
; enemy_anim[index] = EnemyBounceSpr2;
;
L0032:	lda     _index
	asl     a
	bcc     L0030
	ldx     #$01
	clc
L0030:	adc     #<(_enemy_anim)
	sta     ptr1
	txa
	adc     #>(_enemy_anim)
	sta     ptr1+1
	lda     #<(_EnemyBounceSpr2)
	ldy     #$00
	sta     (ptr1),y
	iny
	lda     #>(_EnemyBounceSpr2)
	sta     (ptr1),y
;
; temp1 = enemy_y[index];
;
	ldy     _index
	lda     _enemy_y,y
	sta     _temp1
;
; Generic.x = enemy_x[index]; // this is faster than passing a pointer
;
	ldy     _index
	lda     _enemy_x,y
	sta     _Generic
;
; Generic.y = enemy_y[index] - 1;
;
	ldy     _index
	lda     _enemy_y,y
	sec
	sbc     #$01
	sta     _Generic+1
;
; Generic.width = 15;
;
	lda     #$0F
	sta     _Generic+2
;
; Generic.height = 15;
;
	sta     _Generic+3
;
; bg_check_low();
;
	jsr     _bg_check_low
;
; if(!collision_D){
;
	lda     _collision_D
	bne     L0025
;
; ++enemy_y[index];
;
	lda     #<(_enemy_y)
	ldx     #>(_enemy_y)
L003B:	clc
	adc     _index
	bcc     L0026
	inx
L0026:	sta     ptr1
	stx     ptr1+1
	ldy     #$00
	lda     #$01
	clc
	adc     (ptr1),y
L002C:	sta     (ptr1),y
;
; }
;
L0025:	rts

.endproc

; ---------------------------------------------------------------
; void __near__ sprite_collisions (void)
; ---------------------------------------------------------------

.segment	"CODE"

.proc	_sprite_collisions: near

.segment	"CODE"

;
; Generic.x = high_byte(BoxGuy1.x);
;
	lda     _BoxGuy1+1
	sta     _Generic
;
; Generic.y = high_byte(BoxGuy1.y);
;
	lda     _BoxGuy1+3
	sta     _Generic+1
;
; Generic.width = HERO_WIDTH;
;
	lda     #$0D
	sta     _Generic+2
;
; Generic.height = HERO_HEIGHT;
;
	lda     #$0B
	sta     _Generic+3
;
; for(index = 0; index < MAX_COINS; ++index){
;
	lda     #$00
	sta     _index
L002F:	lda     _index
	cmp     #$0A
	jcs     L0034
;
; if(coin_active[index]){
;
	ldy     _index
	lda     _coin_active,y
	jeq     L0033
;
; if(coin_type[index] == COIN_REG){
;
	ldy     _index
	lda     _coin_type,y
	bne     L0030
;
; Generic2.width = COIN_WIDTH;
;
	lda     #$07
	sta     _Generic2+2
;
; Generic2.height = COIN_HEIGHT;
;
	lda     #$0B
;
; else{
;
	jmp     L002A
;
; Generic2.width = BIG_COIN;
;
L0030:	lda     #$0D
	sta     _Generic2+2
;
; Generic2.height = BIG_COIN;
;
L002A:	sta     _Generic2+3
;
; Generic2.x = coin_x[index];
;
	ldy     _index
	lda     _coin_x,y
	sta     _Generic2
;
; Generic2.y = coin_y[index];
;
	ldy     _index
	lda     _coin_y,y
	sta     _Generic2+1
;
; if(check_collision(&Generic, &Generic2)){
;
	lda     #<(_Generic)
	ldx     #>(_Generic)
	jsr     pushax
	lda     #<(_Generic2)
	ldx     #>(_Generic2)
	jsr     _check_collision
	tax
	jeq     L0033
;
; coin_y[index] = TURN_OFF;
;
	ldy     _index
	lda     #$FF
	sta     _coin_y,y
;
; if(index_list[level][lives%10]==index){
;
	ldx     #$00
	lda     _level
	asl     a
	bcc     L002D
	inx
	clc
L002D:	adc     #<(_index_list)
	sta     ptr1
	txa
	adc     #>(_index_list)
	sta     ptr1+1
	ldy     #$01
	lda     (ptr1),y
	tax
	dey
	lda     (ptr1),y
	jsr     pushax
	lda     _lives
	jsr     pusha0
	lda     #$0A
	jsr     tosumoda0
	jsr     tosaddax
	sta     ptr1
	stx     ptr1+1
	ldx     #$00
	lda     (ptr1,x)
	cmp     _index
	bne     L0031
;
; player_order[lives%10]=1;
;
	lda     _lives
	jsr     pusha0
	lda     #$0A
	jsr     tosumoda0
	clc
	adc     #<(_player_order)
	sta     ptr1
	txa
	adc     #>(_player_order)
	sta     ptr1+1
	lda     #$01
	ldy     #$00
	sta     (ptr1),y
;
; else{
;
	jmp     L003C
;
; player_order[lives%10]=0;
;
L0031:	lda     _lives
	jsr     pusha0
	lda     #$0A
	jsr     tosumoda0
	clc
	adc     #<(_player_order)
	sta     ptr1
	txa
	adc     #>(_player_order)
	sta     ptr1+1
	lda     #$00
	tay
	sta     (ptr1),y
;
; sfx_play(SFX_DING,0);
;
	lda     #$01
L003C:	jsr     pusha
	lda     #$00
	jsr     _sfx_play
;
; if(special_list[level][lives%10]==index)
;
	ldx     #$00
	lda     _level
	asl     a
	bcc     L002E
	inx
	clc
L002E:	adc     #<(_special_list)
	sta     ptr1
	txa
	adc     #>(_special_list)
	sta     ptr1+1
	ldy     #$01
	lda     (ptr1),y
	tax
	dey
	lda     (ptr1),y
	jsr     pushax
	lda     _lives
	jsr     pusha0
	lda     #$0A
	jsr     tosumoda0
	jsr     tosaddax
	sta     ptr1
	stx     ptr1+1
	ldx     #$00
	lda     (ptr1,x)
	cmp     _index
	bne     L0032
;
; player_special_order[lives%10]=1;
;
	lda     _lives
	jsr     pusha0
	lda     #$0A
	jsr     tosumoda0
	clc
	adc     #<(_player_special_order)
	sta     ptr1
	txa
	adc     #>(_player_special_order)
	sta     ptr1+1
	lda     #$01
;
; else
;
	jmp     L003B
;
; player_special_order[lives%10]=0;
;
L0032:	lda     _lives
	jsr     pusha0
	lda     #$0A
	jsr     tosumoda0
	clc
	adc     #<(_player_special_order)
	sta     ptr1
	txa
	adc     #>(_player_special_order)
	sta     ptr1+1
	lda     #$00
L003B:	ldy     #$00
	sta     (ptr1),y
;
; ++lives;
;
	inc     _lives
;
; if(coin_type[index] == COIN_END) ++level_up;
;
	ldy     _index
	lda     _coin_type,y
	cmp     #$01
	bne     L0033
	inc     _level_up
;
; for(index = 0; index < MAX_COINS; ++index){
;
L0033:	inc     _index
	jmp     L002F
;
; Generic2.width = ENEMY_WIDTH;
;
L0034:	lda     #$0D
	sta     _Generic2+2
;
; Generic2.height = ENEMY_HEIGHT;
;
	sta     _Generic2+3
;
; for(index = 0; index < MAX_ENEMY; ++index){
;
	lda     #$00
	sta     _index
L0035:	lda     _index
	cmp     #$10
	bcs     L0016
;
; if(enemy_active[index]){
;
	ldy     _index
	lda     _enemy_active,y
	beq     L0039
;
; Generic2.x = enemy_x[index];
;
	ldy     _index
	lda     _enemy_x,y
	sta     _Generic2
;
; Generic2.y = enemy_y[index];
;
	ldy     _index
	lda     _enemy_y,y
	sta     _Generic2+1
;
; if(check_collision(&Generic, &Generic2)){
;
	lda     #<(_Generic)
	ldx     #>(_Generic)
	jsr     pushax
	lda     #<(_Generic2)
	ldx     #>(_Generic2)
	jsr     _check_collision
	tax
	beq     L0039
;
; enemy_y[index] = TURN_OFF;
;
	ldy     _index
	lda     #$FF
	sta     _enemy_y,y
;
; enemy_active[index] = 0;
;
	ldy     _index
	lda     #$00
	sta     _enemy_active,y
;
; sfx_play(SFX_NOISE, 0);
;
	lda     #$02
	jsr     pusha
	lda     #$00
	jsr     _sfx_play
;
; if(lives&&!(pad1&PAD_A)) {
;
	lda     _lives
	beq     L0037
	lda     _pad1
	and     #$80
	bne     L0037
;
; lives -= 1;
;
	dec     _lives
;
; if(lives > 0x80) lives = 0;
;
	lda     _lives
	cmp     #$81
	bcc     L0039
	lda     #$00
	sta     _lives
;
; else if(pad1&PAD_A)
;
	jmp     L0039
L0037:	lda     _pad1
	and     #$80
	beq     L0038
;
; lives+=1;
;
	inc     _lives
;
; else { // die
;
	jmp     L0039
;
; ++death;
;
L0038:	inc     _death
;
; for(index = 0; index < MAX_ENEMY; ++index){
;
L0039:	inc     _index
	jmp     L0035
;
; }
;
L0016:	rts

.endproc

; ---------------------------------------------------------------
; void __near__ check_spr_objects (void)
; ---------------------------------------------------------------

.segment	"CODE"

.proc	_check_spr_objects: near

.segment	"CODE"

;
; ++enemy_frames;
;
	inc     _enemy_frames
;
; Generic2.x = high_byte(BoxGuy1.x);
;
	lda     _BoxGuy1+1
	sta     _Generic2
;
; for(index = 0; index < MAX_COINS; ++index){
;
	lda     #$00
	sta     _index
L0019:	lda     _index
	cmp     #$0A
	bcs     L001B
;
; coin_active[index] = 0; //default to zero
;
	ldy     _index
	lda     #$00
	sta     _coin_active,y
;
; if(coin_y[index] != TURN_OFF){
;
	ldy     _index
	lda     _coin_y,y
	cmp     #$FF
	beq     L001A
;
; high_byte(temp5) = coin_room[index];
;
	ldy     _index
	lda     _coin_room,y
	sta     _temp5+1
;
; low_byte(temp5) = coin_actual_x[index];
;
	ldy     _index
	lda     _coin_actual_x,y
	sta     _temp5
;
; coin_active[index] = get_position();
;
	lda     #<(_coin_active)
	ldx     #>(_coin_active)
	clc
	adc     _index
	bcc     L000B
	inx
L000B:	jsr     pushax
	jsr     _get_position
	ldy     #$00
	jsr     staspidx
;
; coin_x[index] = temp_x; // screen x coords
;
	ldy     _index
	lda     _temp_x
	sta     _coin_x,y
;
; for(index = 0; index < MAX_COINS; ++index){
;
L001A:	inc     _index
	jmp     L0019
;
; for(index = 0; index < MAX_ENEMY; ++index){
;
L001B:	lda     #$00
	sta     _index
L001C:	lda     _index
	cmp     #$10
	bcs     L000E
;
; enemy_active[index] = 0; //default to zero
;
	ldy     _index
	lda     #$00
	sta     _enemy_active,y
;
; if(enemy_y[index] != TURN_OFF){
;
	ldy     _index
	lda     _enemy_y,y
	cmp     #$FF
	beq     L001D
;
; high_byte(temp5) = enemy_room[index];
;
	ldy     _index
	lda     _enemy_room,y
	sta     _temp5+1
;
; low_byte(temp5) = enemy_actual_x[index];
;
	ldy     _index
	lda     _enemy_actual_x,y
	sta     _temp5
;
; temp1 = enemy_active[index] = get_position();
;
	lda     #<(_enemy_active)
	ldx     #>(_enemy_active)
	clc
	adc     _index
	bcc     L0016
	inx
L0016:	jsr     pushax
	jsr     _get_position
	ldy     #$00
	jsr     staspidx
	sta     _temp1
;
; if(temp1 == 0) continue;
;
	lda     _temp1
	beq     L001D
;
; enemy_x[index] = temp_x; // screen x coords
;
	ldy     _index
	lda     _temp_x
	sta     _enemy_x,y
;
; enemy_moves(); // if active, do it's moves now
;
	jsr     _enemy_moves
;
; for(index = 0; index < MAX_ENEMY; ++index){
;
L001D:	inc     _index
	jmp     L001C
;
; }
;
L000E:	rts

.endproc

; ---------------------------------------------------------------
; void __near__ sprite_obj_init (void)
; ---------------------------------------------------------------

.segment	"CODE"

.proc	_sprite_obj_init: near

.segment	"CODE"

;
; pointer = Coins_list[level];
;
	ldx     #$00
	lda     _level
	asl     a
	bcc     L002E
	inx
	clc
L002E:	adc     #<(_Coins_list)
	sta     ptr1
	txa
	adc     #>(_Coins_list)
	sta     ptr1+1
	ldy     #$01
	lda     (ptr1),y
	sta     _pointer+1
	dey
	lda     (ptr1),y
	sta     _pointer
;
; for(index = 0,index2 = 0;index < MAX_COINS; ++index){
;
	tya
	sta     _index
	sta     _index2
L0030:	lda     _index
	cmp     #$0A
	jcs     L0031
;
; coin_x[index] = 0;
;
	ldy     _index
	lda     #$00
	sta     _coin_x,y
;
; temp1 = pointer[index2]; // get a byte of data
;
	lda     _pointer
	ldx     _pointer+1
	ldy     _index2
	sta     ptr1
	stx     ptr1+1
	lda     (ptr1),y
	sta     _temp1
;
; coin_y[index] = temp1;
;
	ldy     _index
	lda     _temp1
	sta     _coin_y,y
;
; if(temp1 == TURN_OFF) break;
;
	lda     _temp1
	cmp     #$FF
	beq     L0031
;
; ++index2;
;
	inc     _index2
;
; coin_active[index] = 0;
;
	ldy     _index
	lda     #$00
	sta     _coin_active,y
;
; temp1 = pointer[index2]; // get a byte of data
;
	lda     _pointer
	ldx     _pointer+1
	ldy     _index2
	sta     ptr1
	stx     ptr1+1
	lda     (ptr1),y
	sta     _temp1
;
; coin_room[index] = temp1;
;
	ldy     _index
	lda     _temp1
	sta     _coin_room,y
;
; ++index2;
;
	inc     _index2
;
; temp1 = pointer[index2]; // get a byte of data
;
	lda     _pointer
	ldx     _pointer+1
	ldy     _index2
	sta     ptr1
	stx     ptr1+1
	lda     (ptr1),y
	sta     _temp1
;
; coin_actual_x[index] = temp1;
;
	ldy     _index
	lda     _temp1
	sta     _coin_actual_x,y
;
; ++index2;
;
	inc     _index2
;
; temp1 = pointer[index2]; // get a byte of data
;
	lda     _pointer
	ldx     _pointer+1
	ldy     _index2
	sta     ptr1
	stx     ptr1+1
	lda     (ptr1),y
	sta     _temp1
;
; coin_type[index] = temp1;
;
	ldy     _index
	lda     _temp1
	sta     _coin_type,y
;
; ++index2;
;
	inc     _index2
;
; for(index = 0,index2 = 0;index < MAX_COINS; ++index){
;
	inc     _index
	jmp     L0030
;
; for(++index;index < MAX_COINS; ++index){
;
L0031:	inc     _index
	ldx     #$00
	lda     _index
	cmp     #$0A
	bcs     L0032
;
; coin_y[index] = TURN_OFF;
;
	ldy     _index
	lda     #$FF
	sta     _coin_y,y
;
; for(++index;index < MAX_COINS; ++index){
;
	jmp     L0031
;
; pointer = Enemy_list[level];
;
L0032:	lda     _level
	asl     a
	bcc     L002F
	inx
	clc
L002F:	adc     #<(_Enemy_list)
	sta     ptr1
	txa
	adc     #>(_Enemy_list)
	sta     ptr1+1
	ldy     #$01
	lda     (ptr1),y
	sta     _pointer+1
	dey
	lda     (ptr1),y
	sta     _pointer
;
; for(index = 0,index2 = 0;index < MAX_ENEMY; ++index){
;
	tya
	sta     _index
	sta     _index2
L0033:	lda     _index
	cmp     #$10
	jcs     L0034
;
; enemy_x[index] = 0;
;
	ldy     _index
	lda     #$00
	sta     _enemy_x,y
;
; temp1 = pointer[index2]; // get a byte of data
;
	lda     _pointer
	ldx     _pointer+1
	ldy     _index2
	sta     ptr1
	stx     ptr1+1
	lda     (ptr1),y
	sta     _temp1
;
; enemy_y[index] = temp1;
;
	ldy     _index
	lda     _temp1
	sta     _enemy_y,y
;
; if(temp1 == TURN_OFF) break;
;
	lda     _temp1
	cmp     #$FF
	beq     L0034
;
; ++index2;
;
	inc     _index2
;
; enemy_active[index] = 0;
;
	ldy     _index
	lda     #$00
	sta     _enemy_active,y
;
; temp1 = pointer[index2]; // get a byte of data
;
	lda     _pointer
	ldx     _pointer+1
	ldy     _index2
	sta     ptr1
	stx     ptr1+1
	lda     (ptr1),y
	sta     _temp1
;
; enemy_room[index] = temp1;
;
	ldy     _index
	lda     _temp1
	sta     _enemy_room,y
;
; ++index2;
;
	inc     _index2
;
; temp1 = pointer[index2]; // get a byte of data
;
	lda     _pointer
	ldx     _pointer+1
	ldy     _index2
	sta     ptr1
	stx     ptr1+1
	lda     (ptr1),y
	sta     _temp1
;
; enemy_actual_x[index] = temp1;
;
	ldy     _index
	lda     _temp1
	sta     _enemy_actual_x,y
;
; ++index2;
;
	inc     _index2
;
; temp1 = pointer[index2]; // get a byte of data
;
	lda     _pointer
	ldx     _pointer+1
	ldy     _index2
	sta     ptr1
	stx     ptr1+1
	lda     (ptr1),y
	sta     _temp1
;
; enemy_type[index] = temp1;
;
	ldy     _index
	lda     _temp1
	sta     _enemy_type,y
;
; ++index2;
;
	inc     _index2
;
; for(index = 0,index2 = 0;index < MAX_ENEMY; ++index){
;
	inc     _index
	jmp     L0033
;
; for(++index;index < MAX_ENEMY; ++index){
;
L0034:	inc     _index
	lda     _index
	cmp     #$10
	bcs     L001E
;
; enemy_y[index] = TURN_OFF;
;
	ldy     _index
	lda     #$FF
	sta     _enemy_y,y
;
; for(++index;index < MAX_ENEMY; ++index){
;
	jmp     L0034
;
; }
;
L001E:	rts

.endproc

; ---------------------------------------------------------------
; void __near__ bg_collision_fast (void)
; ---------------------------------------------------------------

.segment	"CODE"

.proc	_bg_collision_fast: near

.segment	"CODE"

;
; collision_L = 0;
;
	lda     #$00
	sta     _collision_L
;
; collision_R = 0;
;
	sta     _collision_R
;
; if(Generic.y >= 0xf0) return;
;
	lda     _Generic+1
	cmp     #$F0
	bcs     L0004
;
; temp6 = temp5 = Generic.x + scroll_x; // upper left (temp6 = save for reuse)
;
	lda     _Generic
	clc
	adc     _scroll_x
	pha
	lda     #$00
	adc     _scroll_x+1
	tax
	pla
	sta     _temp5
	stx     _temp5+1
	sta     _temp6
	stx     _temp6+1
;
; temp1 = temp5 & 0xff; // low byte x
;
	lda     _temp5
	sta     _temp1
;
; temp2 = temp5 >> 8; // high byte x
;
	lda     _temp5+1
	sta     _temp2
;
; temp3 = Generic.y; // y top
;
	lda     _Generic+1
	sta     _temp3
;
; bg_collision_sub();
;
	jsr     _bg_collision_sub
;
; if(collision & COL_ALL){ // find a corner in the collision map
;
	lda     _collision
	and     #$40
	beq     L0005
;
; ++collision_L;
;
	inc     _collision_L
;
; temp5 += Generic.width;
;
L0005:	lda     _Generic+2
	clc
	adc     _temp5
	sta     _temp5
	lda     #$00
	adc     _temp5+1
	sta     _temp5+1
;
; temp1 = temp5 & 0xff; // low byte x
;
	lda     _temp5
	sta     _temp1
;
; temp2 = temp5 >> 8; // high byte x
;
	lda     _temp5+1
	sta     _temp2
;
; bg_collision_sub();
;
	jsr     _bg_collision_sub
;
; if(collision & COL_ALL){ // find a corner in the collision map
;
	lda     _collision
	and     #$40
	beq     L0004
;
; ++collision_R;
;
	inc     _collision_R
;
; }
;
L0004:	rts

.endproc

; ---------------------------------------------------------------
; unsigned char __near__ check_order (void)
; ---------------------------------------------------------------

.segment	"CODE"

.proc	_check_order: near

.segment	"CODE"

;
; for(index=0;index<MAX_COINS;++index)
;
	lda     #$00
	sta     _index
	tax
L0008:	lda     _index
	cmp     #$0A
	bcs     L000A
;
; if (player_order[index]!=1)
;
	ldy     _index
	lda     _player_order,y
	cmp     #$01
	beq     L0009
;
; return 0;
;
	lda     #$00
	rts
;
; for(index=0;index<MAX_COINS;++index)
;
L0009:	inc     _index
	jmp     L0008
;
; return 1;
;
L000A:	lda     #$01
;
; }
;
	rts

.endproc

; ---------------------------------------------------------------
; unsigned char __near__ check_special_order (void)
; ---------------------------------------------------------------

.segment	"CODE"

.proc	_check_special_order: near

.segment	"CODE"

;
; for(index=0;index<MAX_COINS;++index)
;
	lda     #$00
	sta     _index
	tax
L0008:	lda     _index
	cmp     #$0A
	bcs     L000A
;
; if (player_special_order[index]!=1)
;
	ldy     _index
	lda     _player_special_order,y
	cmp     #$01
	beq     L0009
;
; return 0;
;
	lda     #$00
	rts
;
; for(index=0;index<MAX_COINS;++index)
;
L0009:	inc     _index
	jmp     L0008
;
; return 1;
;
L000A:	lda     #$01
;
; }
;
	rts

.endproc

; ---------------------------------------------------------------
; void __near__ main (void)
; ---------------------------------------------------------------

.segment	"CODE"

.proc	_main: near

.segment	"CODE"

;
; ppu_off(); // screen off
;
	jsr     _ppu_off
;
; bank_spr(1);
;
	lda     #$01
	jsr     _bank_spr
;
; set_vram_buffer(); // do at least once
;
	jsr     _set_vram_buffer
;
; clear_vram_buffer();
;
	jsr     _clear_vram_buffer
;
; load_title();
;
	jsr     _load_title
;
; ppu_on_all(); // turn on screen
;
	jsr     _ppu_on_all
;
; scroll_x = 0;
;
	ldx     #$00
	txa
	sta     _scroll_x
	sta     _scroll_x+1
;
; set_scroll_x(scroll_x);
;
	jsr     _set_scroll_x
;
; while(game_mode == MODE_TITLE){
;
	jmp     L0032
;
; ppu_wait_nmi();
;
L0005:	jsr     _ppu_wait_nmi
;
; set_music_speed(8);
;
	lda     #$08
	jsr     _set_music_speed
;
; temp1 = get_frame_count();
;
	jsr     _get_frame_count
	sta     _temp1
;
; temp1 = (temp1 >> 3) & 3;
;
	lsr     a
	lsr     a
	lsr     a
	and     #$03
	sta     _temp1
;
; pal_col(3,title_color_rotate[temp1]);
;
	lda     #$03
	jsr     pusha
	ldy     _temp1
	lda     _title_color_rotate,y
	jsr     _pal_col
;
; pad1 = pad_poll(0); // read the first controller
;
	lda     #$00
	jsr     _pad_poll
	sta     _pad1
;
; pad1_new = get_pad_new(0);
;
	lda     #$00
	jsr     _get_pad_new
	sta     _pad1_new
;
; if(pad1_new & PAD_START){
;
	and     #$10
	beq     L0032
;
; pal_fade_to(4,0); // fade to black
;
	lda     #$04
	jsr     pusha
	lda     #$00
	jsr     _pal_fade_to
;
; ppu_off();
;
	jsr     _ppu_off
;
; load_room();
;
	jsr     _load_room
;
; game_mode = MODE_GAME;
;
	lda     #$01
	sta     _game_mode
;
; pal_bg(palette_bg);
;
	lda     #<(_palette_bg)
	ldx     #>(_palette_bg)
	jsr     _pal_bg
;
; song = SONG_GAME;
;
	lda     #$00
	sta     _song
;
; music_play(song);
;
	jsr     _music_play
;
; scroll_x = 0;
;
	ldx     #$00
	txa
	sta     _scroll_x
	sta     _scroll_x+1
;
; set_scroll_x(scroll_x);
;
	jsr     _set_scroll_x
;
; ppu_on_all();  
;
	jsr     _ppu_on_all
;
; pal_bright(4); // back to normal brighness 
;
	lda     #$04
	jsr     _pal_bright
;
; while(game_mode == MODE_TITLE){
;
L0032:	lda     _game_mode
	beq     L0005
;
; while(game_mode == MODE_GAME){
;
	jmp     L0034
;
; ppu_wait_nmi();
;
L000A:	jsr     _ppu_wait_nmi
;
; set_music_speed(8);
;
	lda     #$08
	jsr     _set_music_speed
;
; pad1 = pad_poll(0); // read the first controller
;
	lda     #$00
	jsr     _pad_poll
	sta     _pad1
;
; pad1_new = get_pad_new(0);
;
	lda     #$00
	jsr     _get_pad_new
	sta     _pad1_new
;
; clear_vram_buffer(); // do at the beginning of each frame
;
	jsr     _clear_vram_buffer
;
; movement();
;
	jsr     _movement
;
; check_spr_objects(); // see which objects are on screen
;
	jsr     _check_spr_objects
;
; sprite_collisions();
;
	jsr     _sprite_collisions
;
; set_scroll_x(scroll_x);
;
	lda     _scroll_x
	ldx     _scroll_x+1
	jsr     _set_scroll_x
;
; draw_screen_R();
;
	jsr     _draw_screen_R
;
; draw_sprites();
;
	jsr     _draw_sprites
;
; if(pad1_new & PAD_START){
;
	lda     _pad1_new
	and     #$10
	beq     L000D
;
; game_mode = MODE_PAUSE;
;
	lda     #$02
	sta     _game_mode
;
; song = SONG_PAUSE;
;
	lda     #$01
	sta     _song
;
; music_play(song);
;
	jsr     _music_play
;
; color_emphasis(COL_EMP_DARK);
;
	lda     #$E0
	jsr     _color_emphasis
;
; break; // out of the game loop
;
	jmp     L0039
;
; if(level_up) {
;
L000D:	lda     _level_up
	jeq     L000E
;
; game_mode = MODE_SWITCH;
;
	lda     #$03
	sta     _game_mode
;
; level_up = 0;
;
	lda     #$00
	sta     _level_up
;
; bright = 4;
;
	lda     #$04
	sta     _bright
;
; bright_count = 0;
;
	lda     #$00
	sta     _bright_count
;
; order=0;
;
	sta     _order
;
; order=check_order();
;
	jsr     _check_order
	sta     _order
;
; if(!order)
;
	lda     _order
	bne     L000F
;
; order1=0;
;
	sta     _order1
;
; order1=check_special_order();
;
	jsr     _check_special_order
	sta     _order1
;
; if(!order1){
;
	lda     _order1
	bne     L0010
;
; death = 0;
;
	sta     _death
;
; bright = 0;
;
	sta     _bright
;
; scroll_x = 0;
;
	tax
	sta     _scroll_x
	sta     _scroll_x+1
;
; set_scroll_x(scroll_x);
;
	jsr     _set_scroll_x
;
; ppu_off();
;
	jsr     _ppu_off
;
; delay(5); 
;
	lda     #$05
	jsr     _delay
;
; oam_clear();
;
	jsr     _oam_clear
;
; clear_vram_buffer();
;
	jsr     _clear_vram_buffer
;
; game_mode = MODE_GAME_OVER;
;
	lda     #$05
	sta     _game_mode
;
; vram_adr(NAMETABLE_A);
;
	ldx     #$20
	lda     #$00
	jsr     _vram_adr
;
; vram_fill(0,1024);
;
	lda     #$00
	jsr     pusha
	ldx     #$04
	jsr     _vram_fill
;
; ppu_on_all();
;
	jsr     _ppu_on_all
;
; if(level==3)
;
L0010:	lda     _level
	cmp     #$03
	bne     L0033
;
; level=4;
;
	lda     #$04
	sta     _level
;
; order2=1;
;
	lda     #$01
	sta     _order2
;
; else
;
	jmp     L0034
;
; level=3;
;
L0033:	lda     #$03
	sta     _level
;
; else
;
	jmp     L0034
;
; ++level;
;
L000F:	inc     _level
;
; else if(death) {
;
	jmp     L0034
L000E:	lda     _death
	beq     L0034
;
; death = 0;
;
	lda     #$00
	sta     _death
;
; bright = 0;
;
	sta     _bright
;
; scroll_x = 0;
;
	tax
	sta     _scroll_x
	sta     _scroll_x+1
;
; set_scroll_x(scroll_x);
;
	jsr     _set_scroll_x
;
; ppu_off();
;
	jsr     _ppu_off
;
; delay(5); 
;
	lda     #$05
	jsr     _delay
;
; oam_clear();
;
	jsr     _oam_clear
;
; clear_vram_buffer();
;
	jsr     _clear_vram_buffer
;
; game_mode = MODE_GAME_OVER;
;
	lda     #$05
	sta     _game_mode
;
; vram_adr(NAMETABLE_A);
;
	ldx     #$20
	lda     #$00
	jsr     _vram_adr
;
; vram_fill(0,1024);
;
	lda     #$00
	jsr     pusha
	ldx     #$04
	jsr     _vram_fill
;
; ppu_on_all();
;
	jsr     _ppu_on_all
;
; while(game_mode == MODE_GAME){
;
L0034:	lda     _game_mode
	cmp     #$01
	jeq     L000A
;
; while(game_mode == MODE_SWITCH){ 
;
	jmp     L0039
;
; ppu_wait_nmi();
;
L0016:	jsr     _ppu_wait_nmi
;
; ++bright_count;
;
	inc     _bright_count
;
; if(bright_count >= 0x10) { // fade out
;
	lda     _bright_count
	cmp     #$10
	bcc     L001A
;
; bright_count = 0;
;
	lda     #$00
	sta     _bright_count
;
; --bright;
;
	dec     _bright
;
; if(bright != 0xff) pal_bright(bright); // fade out
;
	lda     _bright
	cmp     #$FF
	beq     L001A
	jsr     _pal_bright
;
; set_scroll_x(scroll_x);
;
L001A:	lda     _scroll_x
	ldx     _scroll_x+1
	jsr     _set_scroll_x
;
; if(bright == 0xff) { // now switch rooms
;
	lda     _bright
	cmp     #$FF
	jne     L0024
;
; ppu_off();
;
	jsr     _ppu_off
;
; clear_vram_buffer();
;
	jsr     _clear_vram_buffer
;
; oam_clear();
;
	jsr     _oam_clear
;
; scroll_x = 0;
;
	ldx     #$00
	txa
	sta     _scroll_x
	sta     _scroll_x+1
;
; set_scroll_x(scroll_x);
;
	jsr     _set_scroll_x
;
; if(level < 3)
;
	lda     _level
	cmp     #$03
	bcs     L0035
;
; load_room();
;
	jsr     _load_room
;
; game_mode = MODE_GAME;
;
	lda     #$01
	sta     _game_mode
;
; else if(level==3&&order1)
;
	jmp     L003E
L0035:	lda     _level
	cmp     #$03
	bne     L001E
	lda     _order1
	beq     L001E
;
; load_room();
;
	jsr     _load_room
;
; game_mode = MODE_GAME;
;
	lda     #$01
	sta     _game_mode
;
; else if (order2){
;
	jmp     L003E
L001E:	lda     _order2
	beq     L0038
;
; pal_bg(palette_title);
;
	lda     #<(_palette_title)
	ldx     #>(_palette_title)
	jsr     _pal_bg
;
; pal_spr(palette_sp);
;
	lda     #<(_palette_sp)
	ldx     #>(_palette_sp)
	jsr     _pal_spr
;
; vram_adr(NAMETABLE_A);
;
	ldx     #$20
	lda     #$00
	jsr     _vram_adr
;
; vram_unrle(FLAG);
;
	lda     #<(_FLAG)
	ldx     #>(_FLAG)
	jsr     _vram_unrle
;
; else { // set end of game. Did we win?
;
	jmp     L003E
;
; game_mode = MODE_END;
;
L0038:	lda     #$04
	sta     _game_mode
;
; vram_adr(NAMETABLE_A);
;
	ldx     #$20
	lda     #$00
	jsr     _vram_adr
;
; vram_fill(0,1024);
;
	lda     #$00
	jsr     pusha
	ldx     #$04
	jsr     _vram_fill
;
; ppu_on_all();
;
L003E:	jsr     _ppu_on_all
;
; pal_bright(4); // back to normal brighness
;
	lda     #$04
	jsr     _pal_bright
;
; reset_special();
;
L0024:	jsr     _reset_special
;
; reset_ind();
;
	jsr     _reset_ind
;
; while(game_mode == MODE_SWITCH){ 
;
L0039:	lda     _game_mode
	cmp     #$03
	jeq     L0016
;
; while(game_mode == MODE_PAUSE){
;
	jmp     L003A
;
; ppu_wait_nmi();
;
L0025:	jsr     _ppu_wait_nmi
;
; clear_vram_buffer(); // reset every frame
;
	jsr     _clear_vram_buffer
;
; pad1 = pad_poll(0); // read the first controller
;
	lda     #$00
	jsr     _pad_poll
	sta     _pad1
;
; pad1_new = get_pad_new(0);
;
	lda     #$00
	jsr     _get_pad_new
	sta     _pad1_new
;
; draw_sprites();
;
	jsr     _draw_sprites
;
; if(pad1_new & PAD_START){
;
	lda     _pad1_new
	and     #$10
	beq     L003A
;
; game_mode = MODE_GAME;
;
	lda     #$01
	sta     _game_mode
;
; song = SONG_GAME;
;
	lda     #$00
	sta     _song
;
; music_play(song);
;
	jsr     _music_play
;
; color_emphasis(COL_EMP_NORMAL);
;
	lda     #$00
	jsr     _color_emphasis
;
; while(game_mode == MODE_PAUSE){
;
L003A:	lda     _game_mode
	cmp     #$02
	beq     L0025
;
; while(game_mode == MODE_END){
;
	jmp     L003B
;
; ppu_wait_nmi();
;
L0029:	jsr     _ppu_wait_nmi
;
; oam_clear();
;
	jsr     _oam_clear
;
; clear_vram_buffer(); // reset every frame
;
	jsr     _clear_vram_buffer
;
; multi_vram_buffer_horz(END_TEXT, sizeof(END_TEXT), NTADR_A(6,13));
;
	jsr     decsp3
	lda     #<(_END_TEXT)
	ldy     #$01
	sta     (sp),y
	iny
	lda     #>(_END_TEXT)
	sta     (sp),y
	lda     #$15
	ldy     #$00
	sta     (sp),y
	ldx     #$21
	lda     #$A6
	jsr     _multi_vram_buffer_horz
;
; multi_vram_buffer_horz(END_TEXT2, sizeof(END_TEXT2), NTADR_A(8,15));
;
	jsr     decsp3
	lda     #<(_END_TEXT2)
	ldy     #$01
	sta     (sp),y
	iny
	lda     #>(_END_TEXT2)
	sta     (sp),y
	lda     #$11
	ldy     #$00
	sta     (sp),y
	ldx     #$21
	lda     #$E8
	jsr     _multi_vram_buffer_horz
;
; multi_vram_buffer_horz(END_TEXT3, sizeof(END_TEXT3), NTADR_A(11,17));
;
	jsr     decsp3
	lda     #<(_END_TEXT3)
	ldy     #$01
	sta     (sp),y
	iny
	lda     #>(_END_TEXT3)
	sta     (sp),y
	lda     #$08
	ldy     #$00
	sta     (sp),y
	ldx     #$22
	lda     #$2B
	jsr     _multi_vram_buffer_horz
;
; temp1 = (lives / 10) + 0x30;
;
	lda     _lives
	jsr     pusha0
	lda     #$0A
	jsr     tosudiva0
	clc
	adc     #$30
	sta     _temp1
;
; temp2 = (lives % 10) + 0x30;
;
	lda     _lives
	jsr     pusha0
	lda     #$0A
	jsr     tosumoda0
	clc
	adc     #$30
	sta     _temp2
;
; one_vram_buffer(temp1, NTADR_A(18,17));
;
	lda     _temp1
	jsr     pusha
	ldx     #$22
	lda     #$32
	jsr     _one_vram_buffer
;
; one_vram_buffer(temp2, NTADR_A(19,17));
;
	lda     _temp2
	jsr     pusha
	ldx     #$22
	lda     #$33
	jsr     _one_vram_buffer
;
; set_scroll_x(0);
;
	ldx     #$00
	txa
	jsr     _set_scroll_x
;
; music_stop();
;
	jsr     _music_stop
;
; while(game_mode == MODE_END){
;
L003B:	lda     _game_mode
	cmp     #$04
	jeq     L0029
;
; while(game_mode == MODE_GAME_OVER){
;
	jmp     L003C
;
; ppu_wait_nmi();
;
L002E:	jsr     _ppu_wait_nmi
;
; oam_clear();
;
	jsr     _oam_clear
;
; clear_vram_buffer(); // reset every frame
;
	jsr     _clear_vram_buffer
;
; multi_vram_buffer_horz(DEAD_TEXT, sizeof(DEAD_TEXT), NTADR_A(12,14));
;
	jsr     decsp3
	lda     #<(_DEAD_TEXT)
	ldy     #$01
	sta     (sp),y
	iny
	lda     #>(_DEAD_TEXT)
	sta     (sp),y
	lda     #$0A
	ldy     #$00
	sta     (sp),y
	ldx     #$21
	lda     #$CC
	jsr     _multi_vram_buffer_horz
;
; set_scroll_x(0);
;
	ldx     #$00
	txa
	jsr     _set_scroll_x
;
; music_stop();
;
	jsr     _music_stop
;
; while(game_mode == MODE_GAME_OVER){
;
L003C:	lda     _game_mode
	cmp     #$05
	beq     L002E
;
; while (1){
;
	jmp     L0032

.endproc

